libcephfs.so.1 libcephfs1 #MINVER#
 _Z11ccap_stringB5cxx11i@Base 0.87
 _Z11gcap_stringB5cxx11i@Base 0.87
 _Z15finish_contextsI7ContextEvP11CephContextRNSt7__cxx114listIPT_SaIS6_EEEi@Base 0.87
 _Z15posix_acl_checkPKvm@Base 0.87
 _Z17posix_acl_permitsRKN4ceph6buffer3ptrEjjjR10UserGroupsj@Base 0.87
 _Z20posix_acl_equiv_modePKvmPj@Base 0.87
 _Z21intrusive_ptr_add_refP5Inode@Base 0.87
 _Z21intrusive_ptr_releaseP5Inode@Base 0.87
 _Z22posix_acl_access_chmodRN4ceph6buffer3ptrEj@Base 0.87
 _Z22posix_acl_inherit_modeRN4ceph6buffer3ptrEPj@Base 0.87
 _Z25client_flush_set_callbackPvPN12ObjectCacher9ObjectSetE@Base 0.87
 _Z6decodeINSt7__cxx1112basic_stringIcSt11char_traitsIcESaIcEEEN4ceph6buffer3ptrEEvRSt3mapIT_T0_St4lessISA_ESaISt4pairIKSA_SB_EEERNS7_4list8iteratorE@Base 0.87
 _Z6decodeRN4ceph6buffer4listERNS1_8iteratorE@Base 0.87
 _Z6decodeRNSt7__cxx1112basic_stringIcSt11char_traitsIcESaIcEEERN4ceph6buffer4list8iteratorE@Base 0.87
 _Z6encodeINSt7__cxx1112basic_stringIcSt11char_traitsIcESaIcEEEN4ceph6buffer3ptrEEvRKSt3mapIT_T0_St4lessISA_ESaISt4pairIKSA_SB_EEERNS7_4listE@Base 0.87
 _Z8rjhash64m@Base 0.87
 _ZGVZ9stringifyImENSt7__cxx1112basic_stringIcSt11char_traitsIcESaIcEEERKT_E2ssB5cxx11@Base 0.87
 _ZN10C_SafeCond6finishEi@Base 0.87
 _ZN10C_SafeCondD0Ev@Base 0.87
 _ZN10C_SafeCondD1Ev@Base 0.87
 _ZN10C_SafeCondD2Ev@Base 0.87
 _ZN10Connection16revoke_rx_bufferEm@Base 0.87
 _ZN10Dispatcher16ms_fast_dispatchEP7Message@Base 0.87
 _ZN10Dispatcher16ms_handle_acceptEP10Connection@Base 0.87
 _ZN10Dispatcher18ms_fast_preprocessEP7Message@Base 0.87
 _ZN10Dispatcher20ms_verify_authorizerEP10ConnectioniiRN4ceph6buffer4listES5_RbR9CryptoKey@Base 0.87
 _ZN10Dispatcher21ms_handle_fast_acceptEP10Connection@Base 0.87
 _ZN10Dispatcher22ms_handle_fast_connectEP10Connection@Base 0.87
 _ZN10fragtree_t13force_to_leafEP11CephContext6frag_t@Base 0.87
 _ZN10fragtree_t23try_assimilate_childrenE6frag_t@Base 0.87
 _ZN10fragtree_t5mergeE6frag_tib@Base 0.87
 _ZN10fragtree_t5splitE6frag_tib@Base 0.87
 _ZN11C_SaferCond4waitEv@Base 0.87
 _ZN11C_SaferCond6finishEi@Base 0.87
 _ZN11C_SaferCond8completeEi@Base 0.87
 _ZN11C_SaferCondC1Ev@Base 0.87
 _ZN11C_SaferCondC2Ev@Base 0.87
 _ZN11C_SaferCondD0Ev@Base 0.87
 _ZN11C_SaferCondD1Ev@Base 0.87
 _ZN11C_SaferCondD2Ev@Base 0.87
 _ZN11MClientCaps14decode_payloadEv@Base 0.87
 _ZN11MClientCaps14encode_payloadEm@Base 0.87
 _ZN11MClientCapsD0Ev@Base 0.87
 _ZN11MClientCapsD1Ev@Base 0.87
 _ZN11MClientCapsD2Ev@Base 0.87
 _ZN11MMonCommand14decode_payloadEv@Base 0.87
 _ZN11MMonCommand14encode_payloadEm@Base 0.87
 _ZN11MMonCommandD0Ev@Base 0.87
 _ZN11MMonCommandD1Ev@Base 0.87
 _ZN11MMonCommandD2Ev@Base 0.87
 _ZN11MetaRequest10old_dentryEv@Base 0.87
 _ZN11MetaRequest10set_dentryEP6Dentry@Base 0.87
 _ZN11MetaRequest14set_old_dentryEP6Dentry@Base 0.87
 _ZN11MetaRequest6dentryEv@Base 0.87
 _ZN11MetaRequestC1Ei@Base 0.87
 _ZN11MetaRequestC2Ei@Base 0.87
 _ZN11MetaRequestD1Ev@Base 0.87
 _ZN11MetaRequestD2Ev@Base 0.87
 _ZN11MetaSession19enqueue_cap_releaseE9inodeno_tmjjj@Base 0.87
 _ZN11MetaSessionD1Ev@Base 0.87
 _ZN11MetaSessionD2Ev@Base 0.87
 _ZN12C_GatherBaseI7ContextS0_E10sub_finishEPS0_i@Base 0.87
 _ZN12C_GatherBaseI7ContextS0_E11C_GatherSub6finishEi@Base 0.87
 _ZN12C_GatherBaseI7ContextS0_E11C_GatherSub8completeEi@Base 0.87
 _ZN12C_GatherBaseI7ContextS0_E11C_GatherSubD0Ev@Base 0.87
 _ZN12C_GatherBaseI7ContextS0_E11C_GatherSubD1Ev@Base 0.87
 _ZN12C_GatherBaseI7ContextS0_E11C_GatherSubD2Ev@Base 0.87
 _ZN12C_GatherBaseI7ContextS0_E6finishEi@Base 0.87
 _ZN12C_GatherBaseI7ContextS0_ED0Ev@Base 0.87
 _ZN12C_GatherBaseI7ContextS0_ED1Ev@Base 0.87
 _ZN12C_GatherBaseI7ContextS0_ED2Ev@Base 0.87
 _ZN12C_OnFinisher6finishEi@Base 0.87
 _ZN12C_OnFinisherD0Ev@Base 0.87
 _ZN12C_OnFinisherD1Ev@Base 0.87
 _ZN12C_OnFinisherD2Ev@Base 0.87
 _ZN12C_PurgeRange6finishEi@Base 0.87
 _ZN12C_PurgeRangeD0Ev@Base 0.87
 _ZN12C_PurgeRangeD1Ev@Base 0.87
 _ZN12C_PurgeRangeD2Ev@Base 0.87
 _ZN12MClientLease14decode_payloadEv@Base 0.87
 _ZN12MClientLease14encode_payloadEm@Base 0.87
 _ZN12MClientLeaseD0Ev@Base 0.87
 _ZN12MClientLeaseD1Ev@Base 0.87
 _ZN12MClientLeaseD2Ev@Base 0.87
 _ZN12ObjectCacher10BufferHeadD1Ev@Base 0.87
 _ZN12ObjectCacher10BufferHeadD2Ev@Base 0.87
 _ZN12ObjectCacher10get_objectE9sobject_tmPNS_9ObjectSetER16object_locator_tmm@Base 0.87
 _ZN12ObjectCacher10perf_startEv@Base 0.87
 _ZN12ObjectCacher11C_RetryRead6finishEi@Base 0.87
 _ZN12ObjectCacher11C_RetryReadD0Ev@Base 0.87
 _ZN12ObjectCacher11C_RetryReadD1Ev@Base 0.87
 _ZN12ObjectCacher11C_RetryReadD2Ev@Base 0.87
 _ZN12ObjectCacher11bh_stat_addEPNS_10BufferHeadE@Base 0.87
 _ZN12ObjectCacher11bh_stat_subEPNS_10BufferHeadE@Base 0.87
 _ZN12ObjectCacher11discard_setEPNS_9ObjectSetERKSt6vectorI12ObjectExtentSaIS3_EE@Base 0.87
 _ZN12ObjectCacher11release_allEv@Base 0.87
 _ZN12ObjectCacher11release_setEPNS_9ObjectSetE@Base 0.87
 _ZN12ObjectCacher12C_ReadFinish6finishEi@Base 0.87
 _ZN12ObjectCacher12C_ReadFinishD0Ev@Base 0.87
 _ZN12ObjectCacher12C_ReadFinishD1Ev@Base 0.87
 _ZN12ObjectCacher12C_ReadFinishD2Ev@Base 0.87
 _ZN12ObjectCacher12bh_set_stateEPNS_10BufferHeadEi@Base 0.87
 _ZN12ObjectCacher12close_objectEPNS_6ObjectE@Base 0.87
 _ZN12ObjectCacher12set_is_emptyEPNS_9ObjectSetE@Base 0.87
 _ZN12ObjectCacher13C_WriteCommit6finishEi@Base 0.87
 _ZN12ObjectCacher13C_WriteCommitD0Ev@Base 0.87
 _ZN12ObjectCacher13C_WriteCommitD1Ev@Base 0.87
 _ZN12ObjectCacher13C_WriteCommitD2Ev@Base 0.87
 _ZN12ObjectCacher13FlusherThread5entryEv@Base 0.87
 _ZN12ObjectCacher13FlusherThreadD0Ev@Base 0.87
 _ZN12ObjectCacher13FlusherThreadD1Ev@Base 0.87
 _ZN12ObjectCacher13FlusherThreadD2Ev@Base 0.87
 _ZN12ObjectCacher13flusher_entryEv@Base 0.87
 _ZN12ObjectCacher13set_is_cachedEPNS_9ObjectSetE@Base 0.87
 _ZN12ObjectCacher14C_WaitForWrite6finishEi@Base 0.87
 _ZN12ObjectCacher14C_WaitForWriteD0Ev@Base 0.87
 _ZN12ObjectCacher14C_WaitForWriteD1Ev@Base 0.87
 _ZN12ObjectCacher14C_WaitForWriteD2Ev@Base 0.87
 _ZN12ObjectCacher14bh_read_finishEl9sobject_tmlmRN4ceph6buffer4listEib@Base 0.87
 _ZN12ObjectCacher15_wait_for_writeEPNS_8OSDWriteEmPNS_9ObjectSetEP7Context@Base 0.87
 _ZN12ObjectCacher15bh_write_commitEl9sobject_tRSt6vectorISt4pairIlmESaIS3_EEmi@Base 0.87
 _ZN12ObjectCacher17_flush_set_finishEP19C_GatherBuilderBaseI7Context12C_GatherBaseIS1_S1_EEPS1_@Base 0.87
 _ZN12ObjectCacher18bh_write_scatteredERNSt7__cxx114listIPNS_10BufferHeadESaIS3_EEE@Base 0.87
 _ZN12ObjectCacher18clear_nonexistenceEPNS_9ObjectSetE@Base 0.87
 _ZN12ObjectCacher19retry_waiting_readsEv@Base 0.87
 _ZN12ObjectCacher20bh_write_adjacenciesEPNS_10BufferHeadENSt6chrono10time_pointIN4ceph11time_detail10real_clockENS2_8durationImSt5ratioILl1ELl1000000000EEEEEEPlPi@Base 0.87
 _ZN12ObjectCacher24maybe_wait_for_writebackEm@Base 0.87
 _ZN12ObjectCacher26set_is_dirty_or_committingEPNS_9ObjectSetE@Base 0.87
 _ZN12ObjectCacher4trimEv@Base 0.87
 _ZN12ObjectCacher5flushEPNS_6ObjectEll@Base 0.87
 _ZN12ObjectCacher5flushEl@Base 0.87
 _ZN12ObjectCacher5purgeEPNS_6ObjectE@Base 0.87
 _ZN12ObjectCacher5readxEPNS_7OSDReadEPNS_9ObjectSetEP7Context@Base 0.87
 _ZN12ObjectCacher6Object10merge_leftEPNS_10BufferHeadES2_@Base 0.87
 _ZN12ObjectCacher6Object12try_merge_bhEPNS_10BufferHeadE@Base 0.87
 _ZN12ObjectCacher6Object13audit_buffersEv@Base 0.87
 _ZN12ObjectCacher6Object16data_lower_boundEl@Base 0.87
 _ZN12ObjectCacher6Object19replace_journal_tidEPNS_10BufferHeadEm@Base 0.87
 _ZN12ObjectCacher6Object23include_all_cached_dataEll@Base 0.87
 _ZN12ObjectCacher6Object5splitEPNS_10BufferHeadEl@Base 0.87
 _ZN12ObjectCacher6Object7discardEll@Base 0.87
 _ZN12ObjectCacher6Object8map_readER12ObjectExtentRSt3mapIlPNS_10BufferHeadESt4lessIlESaISt4pairIKlS5_EEESD_SD_SD_@Base 0.87
 _ZN12ObjectCacher6Object8truncateEl@Base 0.87
 _ZN12ObjectCacher6Object9is_cachedEll@Base 0.87
 _ZN12ObjectCacher6Object9map_writeER12ObjectExtentm@Base 0.87
 _ZN12ObjectCacher6_readxEPNS_7OSDReadEPNS_9ObjectSetEP7Contextb@Base 0.87
 _ZN12ObjectCacher6bh_addEPNS_6ObjectEPNS_10BufferHeadE@Base 0.87
 _ZN12ObjectCacher6writexEPNS_8OSDWriteEPNS_9ObjectSetEP7Context@Base 0.87
 _ZN12ObjectCacher7bh_readEPNS_10BufferHeadEi@Base 0.87
 _ZN12ObjectCacher7releaseEPNS_6ObjectE@Base 0.87
 _ZN12ObjectCacher8bh_writeEPNS_10BufferHeadE@Base 0.87
 _ZN12ObjectCacher9bh_removeEPNS_6ObjectEPNS_10BufferHeadE@Base 0.87
 _ZN12ObjectCacher9flush_allEP7Context@Base 0.87
 _ZN12ObjectCacher9flush_setEPNS_9ObjectSetEP7Context@Base 0.87
 _ZN12ObjectCacher9flush_setEPNS_9ObjectSetERSt6vectorI12ObjectExtentSaIS3_EEP7Context@Base 0.87
 _ZN12ObjectCacher9is_cachedEPNS_9ObjectSetERSt6vectorI12ObjectExtentSaIS3_EE8snapid_t@Base 0.87
 _ZN12ObjectCacher9perf_stopEv@Base 0.87
 _ZN12ObjectCacher9purge_setEPNS_9ObjectSetE@Base 0.87
 _ZN12ObjectCacherC1EP11CephContextNSt7__cxx1112basic_stringIcSt11char_traitsIcESaIcEEER16WritebackHandlerR5MutexPFvPvPNS_9ObjectSetEESC_mmmmdb@Base 0.87
 _ZN12ObjectCacherC2EP11CephContextNSt7__cxx1112basic_stringIcSt11char_traitsIcESaIcEEER16WritebackHandlerR5MutexPFvPvPNS_9ObjectSetEESC_mmmmdb@Base 0.87
 _ZN12ObjectCacherD1Ev@Base 0.87
 _ZN12ObjectCacherD2Ev@Base 0.87
 _ZN12dir_result_tC1EP5Inode@Base 0.87
 _ZN12dir_result_tC2EP5Inode@Base 0.87
 _ZN12quota_info_t6decodeERN4ceph6buffer4list8iteratorE@Base 0.87
 _ZN13C_NoopContext6finishEi@Base 0.87
 _ZN13C_NoopContextD0Ev@Base 0.87
 _ZN13C_NoopContextD1Ev@Base 0.87
 _ZN13C_NoopContextD2Ev@Base 0.87
 _ZN13JournalStream4readERN4ceph6buffer4listEPS2_Pm@Base 0.87
 _ZN13JournalStream5writeERN4ceph6buffer4listEPS2_RKm@Base 0.87
 _ZN13MGetPoolStats14decode_payloadEv@Base 0.87
 _ZN13MGetPoolStats14encode_payloadEm@Base 0.87
 _ZN13MGetPoolStatsD0Ev@Base 0.87
 _ZN13MGetPoolStatsD1Ev@Base 0.87
 _ZN13MGetPoolStatsD2Ev@Base 0.87
 _ZN13SnapRealmInfoD1Ev@Base 0.87
 _ZN13SnapRealmInfoD2Ev@Base 0.87
 _ZN14C_DoWatchError6finishEi@Base 0.87
 _ZN14C_DoWatchErrorD0Ev@Base 0.87
 _ZN14C_DoWatchErrorD1Ev@Base 0.87
 _ZN14C_DoWatchErrorD2Ev@Base 0.87
 _ZN14MClientRequest14decode_payloadEv@Base 0.87
 _ZN14MClientRequest14encode_payloadEm@Base 0.87
 _ZN14MClientRequestD0Ev@Base 0.87
 _ZN14MClientRequestD1Ev@Base 0.87
 _ZN14MClientRequestD2Ev@Base 0.87
 _ZN14MClientSession14decode_payloadEv@Base 0.87
 _ZN14MClientSession14encode_payloadEm@Base 0.87
 _ZN14MClientSessionD0Ev@Base 0.87
 _ZN14MClientSessionD1Ev@Base 0.87
 _ZN14MClientSessionD2Ev@Base 0.87
 _ZN15C_DoWatchNotify6finishEi@Base 0.87
 _ZN15C_DoWatchNotifyD0Ev@Base 0.87
 _ZN15C_DoWatchNotifyD1Ev@Base 0.87
 _ZN15C_DoWatchNotifyD2Ev@Base 0.87
 _ZN15ObjectOperation15add_pgls_filterEimRKN4ceph6buffer4listE9hobject_tj@Base 0.87
 _ZN15ObjectOperation22C_ObjectOperation_stat6finishEi@Base 0.87
 _ZN15ObjectOperation22C_ObjectOperation_statD0Ev@Base 0.87
 _ZN15ObjectOperation22C_ObjectOperation_statD1Ev@Base 0.87
 _ZN15ObjectOperation22C_ObjectOperation_statD2Ev@Base 0.87
 _ZN15ObjectOperation6add_opEi@Base 0.87
 _ZN15ObjectOperation6pg_nlsEmRKN4ceph6buffer4listE9hobject_tj@Base 0.87
 _ZN15ObjectOperation8scrub_lsERKN8librados11object_id_tEmPSt6vectorINS0_18inconsistent_obj_tESaIS5_EEPjPi@Base 0.87
 _ZN15ObjectOperation8scrub_lsERKN8librados11object_id_tEmPSt6vectorINS0_22inconsistent_snapset_tESaIS5_EEPjPi@Base 0.87
 _ZN15ObjectOperationD1Ev@Base 0.87
 _ZN15ObjectOperationD2Ev@Base 0.87
 _ZN15cap_reconnect_tD1Ev@Base 0.87
 _ZN15cap_reconnect_tD2Ev@Base 0.87
 _ZN15ceph_mount_infoD1Ev@Base 0.87
 _ZN15ceph_mount_infoD2Ev@Base 0.87
 _ZN15keys_and_valuesIN9__gnu_cxx17__normal_iteratorIPcNSt7__cxx1112basic_stringIcSt11char_traitsIcESaIcEEEEEEC1Ev@Base 0.87
 _ZN15keys_and_valuesIN9__gnu_cxx17__normal_iteratorIPcNSt7__cxx1112basic_stringIcSt11char_traitsIcESaIcEEEEEEC2Ev@Base 0.87
 _ZN15keys_and_valuesIN9__gnu_cxx17__normal_iteratorIPcNSt7__cxx1112basic_stringIcSt11char_traitsIcESaIcEEEEEED1Ev@Base 0.87
 _ZN15keys_and_valuesIN9__gnu_cxx17__normal_iteratorIPcNSt7__cxx1112basic_stringIcSt11char_traitsIcESaIcEEEEEED2Ev@Base 0.87
 _ZN15md_config_obs_t20handle_subsys_changeEPK11md_config_tRKSt3setIiSt4lessIiESaIiEE@Base 0.87
 _ZN16C_Client_Remount6finishEi@Base 0.87
 _ZN16C_Client_RemountD0Ev@Base 0.87
 _ZN16C_Client_RemountD1Ev@Base 0.87
 _ZN16C_Client_RemountD2Ev@Base 0.87
 _ZN16C_EnumerateReply6finishEi@Base 0.87
 _ZN16C_EnumerateReplyD0Ev@Base 0.87
 _ZN16C_EnumerateReplyD1Ev@Base 0.87
 _ZN16C_EnumerateReplyD2Ev@Base 0.87
 _ZN16MClientReconnect14decode_payloadEv@Base 0.87
 _ZN16MClientReconnect14encode_payloadEm@Base 0.87
 _ZN16MClientReconnectD0Ev@Base 0.87
 _ZN16MClientReconnectD1Ev@Base 0.87
 _ZN16MClientReconnectD2Ev@Base 0.87
 _ZN16RefCountedObject3getEv@Base 0.87
 _ZN16RefCountedObject3putEv@Base 0.87
 _ZN16RefCountedObjectD0Ev@Base 0.87
 _ZN16RefCountedObjectD1Ev@Base 0.87
 _ZN16RefCountedObjectD2Ev@Base 0.87
 _ZN16WritebackHandler15get_client_lockEv@Base 0.87
 _ZN16WritebackHandler15put_client_lockEv@Base 0.87
 _ZN16WritebackHandler16overwrite_extentERK8object_tmmmm@Base 0.87
 _ZN16WritebackHandler19can_scattered_writeEv@Base 0.87
 _ZN16WritebackHandler5writeERK8object_tRK16object_locator_tRSt6vectorISt4pairImN4ceph6buffer4listEESaISB_EERK11SnapContextNSt6chrono10time_pointINS8_11time_detail10real_clockENSI_8durationImSt5ratioILl1ELl1000000000EEEEEEmjP7Context@Base 0.87
 _ZN16compact_map_baseI6frag_tiSt3mapIS0_iSt4lessIS0_ESaISt4pairIKS0_iEEEED1Ev@Base 0.87
 _ZN16compact_map_baseI6frag_tiSt3mapIS0_iSt4lessIS0_ESaISt4pairIKS0_iEEEED2Ev@Base 0.87
 _ZN16object_locator_tC1ERKS_@Base 0.87
 _ZN16object_locator_tC2ERKS_@Base 0.87
 _ZN16object_locator_tD1Ev@Base 0.87
 _ZN16object_locator_tD2Ev@Base 0.87
 _ZN17C_SelfmanagedSnap6finishEi@Base 0.87
 _ZN17C_SelfmanagedSnapD0Ev@Base 0.87
 _ZN17C_SelfmanagedSnapD1Ev@Base 0.87
 _ZN17C_SelfmanagedSnapD2Ev@Base 0.87
 _ZN17MClientCapRelease14decode_payloadEv@Base 0.87
 _ZN17MClientCapRelease14encode_payloadEm@Base 0.87
 _ZN17MClientCapReleaseD0Ev@Base 0.87
 _ZN17MClientCapReleaseD1Ev@Base 0.87
 _ZN17MClientCapReleaseD2Ev@Base 0.87
 _ZN17ObjecterWriteback17may_copy_on_writeERK8object_tmm8snapid_t@Base 0.87
 _ZN17ObjecterWriteback19can_scattered_writeEv@Base 0.87
 _ZN17ObjecterWriteback4readERK8object_tmRK16object_locator_tmm8snapid_tPN4ceph6buffer4listEmjiP7Context@Base 0.87
 _ZN17ObjecterWriteback5writeERK8object_tRK16object_locator_tRSt6vectorISt4pairImN4ceph6buffer4listEESaISB_EERK11SnapContextNSt6chrono10time_pointINS8_11time_detail10real_clockENSI_8durationImSt5ratioILl1ELl1000000000EEEEEEmjP7Context@Base 0.87
 _ZN17ObjecterWriteback5writeERK8object_tRK16object_locator_tmmRK11SnapContextRKN4ceph6buffer4listENSt6chrono10time_pointINS9_11time_detail10real_clockENSE_8durationImSt5ratioILl1ELl1000000000EEEEEEmjmP7Context@Base 0.87
 _ZN17ObjecterWritebackD0Ev@Base 0.87
 _ZN17ObjecterWritebackD1Ev@Base 0.87
 _ZN17ObjecterWritebackD2Ev@Base 0.87
 _ZN17pg_nls_response_t6decodeERN4ceph6buffer4list8iteratorE@Base 0.87
 _ZN19C_Client_SyncCommit6finishEi@Base 0.87
 _ZN19C_Client_SyncCommitD0Ev@Base 0.87
 _ZN19C_Client_SyncCommitD1Ev@Base 0.87
 _ZN19C_Client_SyncCommitD2Ev@Base 0.87
 _ZN19C_GatherBuilderBaseI7Context12C_GatherBaseIS0_S0_EE8activateEv@Base 0.87
 _ZN19C_GatherBuilderBaseI7Context12C_GatherBaseIS0_S0_EED1Ev@Base 0.87
 _ZN19C_GatherBuilderBaseI7Context12C_GatherBaseIS0_S0_EED2Ev@Base 0.87
 _ZN19C_Journaler_Prezero6finishEi@Base 0.87
 _ZN19C_Journaler_PrezeroD0Ev@Base 0.87
 _ZN19C_Journaler_PrezeroD1Ev@Base 0.87
 _ZN19C_Journaler_PrezeroD2Ev@Base 0.87
 _ZN19PaxosServiceMessage14decode_payloadEv@Base 0.87
 _ZN19PaxosServiceMessage14encode_payloadEm@Base 0.87
 _ZN19PaxosServiceMessageD0Ev@Base 0.87
 _ZN19PaxosServiceMessageD1Ev@Base 0.87
 _ZN19PaxosServiceMessageD2Ev@Base 0.87
 _ZN21C_Objecter_GetVersion6finishEi@Base 0.87
 _ZN21C_Objecter_GetVersionD0Ev@Base 0.87
 _ZN21C_Objecter_GetVersionD1Ev@Base 0.87
 _ZN21C_Objecter_GetVersionD2Ev@Base 0.87
 _ZN22C_Client_FlushComplete6finishEi@Base 0.87
 _ZN22C_Client_FlushCompleteD0Ev@Base 0.87
 _ZN22C_Client_FlushCompleteD1Ev@Base 0.87
 _ZN22C_Client_FlushCompleteD2Ev@Base 0.87
 _ZN24C_Client_CacheInvalidate6finishEi@Base 0.87
 _ZN24C_Client_CacheInvalidateD0Ev@Base 0.87
 _ZN24C_Client_CacheInvalidateD1Ev@Base 0.87
 _ZN24C_Client_CacheInvalidateD2Ev@Base 0.87
 _ZN25C_Client_DentryInvalidate6finishEi@Base 0.87
 _ZN25C_Client_DentryInvalidateD0Ev@Base 0.87
 _ZN25C_Client_DentryInvalidateD1Ev@Base 0.87
 _ZN25C_Client_DentryInvalidateD2Ev@Base 0.87
 _ZN25C_Client_RequestInterrupt6finishEi@Base 0.87
 _ZN25C_Client_RequestInterruptD0Ev@Base 0.87
 _ZN25C_Client_RequestInterruptD1Ev@Base 0.87
 _ZN25C_Client_RequestInterruptD2Ev@Base 0.87
 _ZN3LRU10lru_adjustEv@Base 0.87
 _ZN3LRU10lru_removeEP9LRUObject@Base 0.87
 _ZN3LRU14lru_insert_botEP9LRUObject@Base 0.87
 _ZN3LRU14lru_insert_topEP9LRUObject@Base 0.87
 _ZN4Cond4WaitER5Mutex@Base 0.87
 _ZN4Cond6SignalEv@Base 0.87
 _ZN4CondC1Ev@Base 0.87
 _ZN4CondC2Ev@Base 0.87
 _ZN4CondD0Ev@Base 0.87
 _ZN4CondD1Ev@Base 0.87
 _ZN4CondD2Ev@Base 0.87
 _ZN4ceph12timer_detail5timerINS_11time_detail10mono_clockEE12cancel_eventEm@Base 0.87
 _ZN4ceph12timer_detail5timerINS_11time_detail10mono_clockEE12timer_threadEv@Base 0.87
 _ZN4ceph12timer_detail5timerINS_11time_detail10mono_clockEED1Ev@Base 0.87
 _ZN4ceph12timer_detail5timerINS_11time_detail10mono_clockEED2Ev@Base 0.87
 _ZN4ceph13shunique_lockIN5boost12shared_mutexEE6unlockEv@Base 0.87
 _ZN4ceph13shunique_lockIN5boost12shared_mutexEED1Ev@Base 0.87
 _ZN4ceph13shunique_lockIN5boost12shared_mutexEED2Ev@Base 0.87
 _ZN4ceph3log12SubsystemMap13should_gatherEji@Base 0.87
 _ZN4ceph6buffer15malformed_inputD0Ev@Base 0.87
 _ZN4ceph6buffer15malformed_inputD1Ev@Base 0.87
 _ZN4ceph6buffer15malformed_inputD2Ev@Base 0.87
 _ZN4ceph6buffer4list5clearEv@Base 0.87
 _ZN4ceph6buffer4listC1ERKS1_@Base 0.87
 _ZN4ceph6buffer4listC1Ev@Base 0.87
 _ZN4ceph6buffer4listC2ERKS1_@Base 0.87
 _ZN4ceph6buffer4listC2Ev@Base 0.87
 _ZN4ceph6buffer4listaSERKS1_@Base 0.87
 _ZN4pg_t6decodeERN4ceph6buffer4list8iteratorE@Base 0.87
 _ZN5FSMapaSERKS_@Base 0.87
 _ZN5Filer10probe_implEPNS_5ProbeEP13file_layout_tmPm@Base 0.87
 _ZN5Filer11purge_rangeE9inodeno_tP13file_layout_tRK11SnapContextmmNSt6chrono10time_pointIN4ceph11time_detail10real_clockENS6_8durationImSt5ratioILl1ELl1000000000EEEEEEiP7Context@Base 0.87
 _ZN5Filer15_do_purge_rangeEP10PurgeRangei@Base 0.87
 _ZN5Filer4zeroE9inodeno_tP13file_layout_tRK11SnapContextmmNSt6chrono10time_pointIN4ceph11time_detail10real_clockENS6_8durationImSt5ratioILl1ELl1000000000EEEEEEibP7ContextSH_@Base 0.87
 _ZN5Filer5probeE9inodeno_tP13file_layout_t8snapid_tmPmP7utime_tbiP7Context@Base 0.87
 _ZN5Filer5probeE9inodeno_tP13file_layout_t8snapid_tmPmPNSt6chrono10time_pointIN4ceph11time_detail10real_clockENS5_8durationImSt5ratioILl1ELl1000000000EEEEEEbiP7Context@Base 0.87
 _ZN5Filer6_probeEPNS_5ProbeERSt11unique_lockISt5mutexE@Base 0.87
 _ZN5Filer7C_Probe6finishEi@Base 0.87
 _ZN5Filer7C_ProbeD0Ev@Base 0.87
 _ZN5Filer7C_ProbeD1Ev@Base 0.87
 _ZN5Filer7C_ProbeD2Ev@Base 0.87
 _ZN5Filer7_probedEPNS_5ProbeERK8object_tmNSt6chrono10time_pointIN4ceph11time_detail10real_clockENS5_8durationImSt5ratioILl1ELl1000000000EEEEEERSt11unique_lockISt5mutexE@Base 0.87
 _ZN5Inode10caps_dirtyEv@Base 0.87
 _ZN5Inode10check_modeEjR10UserGroupsj@Base 0.87
 _ZN5Inode11caps_wantedEv@Base 0.87
 _ZN5Inode11get_cap_refEi@Base 0.87
 _ZN5Inode11is_any_capsEv@Base 0.87
 _ZN5Inode11put_cap_refEi@Base 0.87
 _ZN5Inode12get_open_refEi@Base 0.87
 _ZN5Inode12put_open_refEi@Base 0.87
 _ZN5Inode13try_touch_capEi@Base 0.87
 _ZN5Inode14make_long_pathER8filepath@Base 0.87
 _ZN5Inode15have_valid_sizeEv@Base 0.87
 _ZN5Inode16caps_file_wantedEv@Base 0.87
 _ZN5Inode16caps_issued_maskEj@Base 0.87
 _ZN5Inode25make_nosnap_relative_pathER8filepath@Base 0.87
 _ZN5Inode3getEv@Base 0.87
 _ZN5Inode4_putEi@Base 0.87
 _ZN5Inode8open_dirEv@Base 0.87
 _ZN5Inode9caps_usedEv@Base 0.87
 _ZN5Inode9touch_capEP3Cap@Base 0.87
 _ZN5InodeD1Ev@Base 0.87
 _ZN5InodeD2Ev@Base 0.87
 _ZN5MPing14decode_payloadEv@Base 0.87
 _ZN5MPing14encode_payloadEm@Base 0.87
 _ZN5MPingD0Ev@Base 0.87
 _ZN5MPingD1Ev@Base 0.87
 _ZN5MPingD2Ev@Base 0.87
 _ZN5OSDOpD1Ev@Base 0.87
 _ZN5OSDOpD2Ev@Base 0.87
 _ZN5Trace10get_stringEPcPKc@Base 0.87
 _ZN5Trace11peek_stringEPcPKc@Base 0.87
 _ZN5Trace5startEv@Base 0.87
 _ZN5boost10lock_errorD0Ev@Base 0.87
 _ZN5boost10lock_errorD1Ev@Base 0.87
 _ZN5boost10lock_errorD2Ev@Base 0.87
 _ZN5boost11shared_lockINS_12shared_mutexEE4lockEv@Base 0.87
 _ZN5boost11shared_lockINS_12shared_mutexEE6unlockEv@Base 0.87
 _ZN5boost11unique_lockINS_5mutexEE4lockEv@Base 0.87
 _ZN5boost12shared_mutex11lock_sharedEv@Base 0.87
 _ZN5boost12shared_mutex13unlock_sharedEv@Base 0.87
 _ZN5boost12shared_mutex4lockEv@Base 0.87
 _ZN5boost12shared_mutex6unlockEv@Base 0.87
 _ZN5boost12shared_mutexC1Ev@Base 0.87
 _ZN5boost12shared_mutexC2Ev@Base 0.87
 _ZN5boost12shared_mutexD1Ev@Base 0.87
 _ZN5boost12shared_mutexD2Ev@Base 0.87
 _ZN5boost13intrusive_ptrI5InodeEaSEPS1_@Base 0.87
 _ZN5boost15condition_errorD0Ev@Base 0.87
 _ZN5boost15condition_errorD1Ev@Base 0.87
 _ZN5boost15condition_errorD2Ev@Base 0.87
 _ZN5boost15throw_exceptionINS_10lock_errorEEEvRKT_@Base 0.87
 _ZN5boost15throw_exceptionINS_15condition_errorEEEvRKT_@Base 0.87
 _ZN5boost15throw_exceptionINS_16bad_lexical_castEEEvRKT_@Base 0.87
 _ZN5boost15throw_exceptionINS_17bad_function_callEEEvRKT_@Base 0.87
 _ZN5boost15throw_exceptionINS_21thread_resource_errorEEEvRKT_@Base 0.87
 _ZN5boost16bad_lexical_castD0Ev@Base 0.87
 _ZN5boost16bad_lexical_castD1Ev@Base 0.87
 _ZN5boost16bad_lexical_castD2Ev@Base 0.87
 _ZN5boost16exception_detail10clone_implINS0_19error_info_injectorINS_10lock_errorEEEED0Ev@Base 0.87
 _ZN5boost16exception_detail10clone_implINS0_19error_info_injectorINS_10lock_errorEEEED1Ev@Base 0.87
 _ZN5boost16exception_detail10clone_implINS0_19error_info_injectorINS_15condition_errorEEEED0Ev@Base 0.87
 _ZN5boost16exception_detail10clone_implINS0_19error_info_injectorINS_15condition_errorEEEED1Ev@Base 0.87
 _ZN5boost16exception_detail10clone_implINS0_19error_info_injectorINS_16bad_lexical_castEEEED0Ev@Base 0.87
 _ZN5boost16exception_detail10clone_implINS0_19error_info_injectorINS_16bad_lexical_castEEEED1Ev@Base 0.87
 _ZN5boost16exception_detail10clone_implINS0_19error_info_injectorINS_17bad_function_callEEEED0Ev@Base 0.87
 _ZN5boost16exception_detail10clone_implINS0_19error_info_injectorINS_17bad_function_callEEEED1Ev@Base 0.87
 _ZN5boost16exception_detail10clone_implINS0_19error_info_injectorINS_21thread_resource_errorEEEED0Ev@Base 0.87
 _ZN5boost16exception_detail10clone_implINS0_19error_info_injectorINS_21thread_resource_errorEEEED1Ev@Base 0.87
 _ZN5boost16exception_detail19error_info_injectorINS_10lock_errorEED0Ev@Base 0.87
 _ZN5boost16exception_detail19error_info_injectorINS_10lock_errorEED1Ev@Base 0.87
 _ZN5boost16exception_detail19error_info_injectorINS_10lock_errorEED2Ev@Base 0.87
 _ZN5boost16exception_detail19error_info_injectorINS_15condition_errorEED0Ev@Base 0.87
 _ZN5boost16exception_detail19error_info_injectorINS_15condition_errorEED1Ev@Base 0.87
 _ZN5boost16exception_detail19error_info_injectorINS_15condition_errorEED2Ev@Base 0.87
 _ZN5boost16exception_detail19error_info_injectorINS_16bad_lexical_castEED0Ev@Base 0.87
 _ZN5boost16exception_detail19error_info_injectorINS_16bad_lexical_castEED1Ev@Base 0.87
 _ZN5boost16exception_detail19error_info_injectorINS_16bad_lexical_castEED2Ev@Base 0.87
 _ZN5boost16exception_detail19error_info_injectorINS_17bad_function_callEED0Ev@Base 0.87
 _ZN5boost16exception_detail19error_info_injectorINS_17bad_function_callEED1Ev@Base 0.87
 _ZN5boost16exception_detail19error_info_injectorINS_17bad_function_callEED2Ev@Base 0.87
 _ZN5boost16exception_detail19error_info_injectorINS_21thread_resource_errorEED0Ev@Base 0.87
 _ZN5boost16exception_detail19error_info_injectorINS_21thread_resource_errorEED1Ev@Base 0.87
 _ZN5boost16exception_detail19error_info_injectorINS_21thread_resource_errorEED2Ev@Base 0.87
 _ZN5boost16exception_detail20copy_boost_exceptionEPNS_9exceptionEPKS1_@Base 0.87
 _ZN5boost16thread_exceptionD0Ev@Base 0.87
 _ZN5boost16thread_exceptionD1Ev@Base 0.87
 _ZN5boost16thread_exceptionD2Ev@Base 0.87
 _ZN5boost17bad_function_callD0Ev@Base 0.87
 _ZN5boost17bad_function_callD1Ev@Base 0.87
 _ZN5boost17bad_function_callD2Ev@Base 0.87
 _ZN5boost18condition_variable10notify_oneEv@Base 0.87
 _ZN5boost18condition_variableC1Ev@Base 0.87
 _ZN5boost18condition_variableC2Ev@Base 0.87
 _ZN5boost18condition_variableD1Ev@Base 0.87
 _ZN5boost18condition_variableD2Ev@Base 0.87
 _ZN5boost21thread_resource_errorD0Ev@Base 0.87
 _ZN5boost21thread_resource_errorD1Ev@Base 0.87
 _ZN5boost21thread_resource_errorD2Ev@Base 0.87
 _ZN5boost5mutex6unlockEv@Base 0.87
 _ZN5boost5mutexD1Ev@Base 0.87
 _ZN5boost5mutexD2Ev@Base 0.87
 _ZN5boost6detail18lcast_ret_unsignedISt11char_traitsIcEjcE22main_convert_iterationEv@Base 0.87
 _ZN5boost6detail20interruption_checkerD1Ev@Base 0.87
 _ZN5boost6detail20interruption_checkerD2Ev@Base 0.87
 _ZN5boost6detail7variant13forced_returnIvEET_v@Base 0.87
 _ZN5boost6detail8function15functor_managerINS_6spirit2qi6detail13parser_binderINS4_4plusINS4_8char_setINS3_13char_encoding8standardELb0ELb0EEEEEN4mpl_5bool_ILb0EEEEEE6manageERKNS1_15function_bufferERSI_NS1_30functor_manager_operation_typeE@Base 0.87
 _ZN5boost6detail8function15functor_managerINS_6spirit2qi6detail13parser_binderINS4_8sequenceINS_6fusion4consINS4_8char_setINS3_13char_encoding8standardELb0ELb0EEENS9_INS4_6kleeneISD_EENS8_4nil_EEEEEEEN4mpl_5bool_ILb0EEEEEE6manageERKNS1_15function_bufferERSP_NS1_30functor_manager_operation_typeE@Base 0.87
 _ZN5boost6detail8function15functor_managerINS_6spirit2qi6detail13parser_binderINS4_8sequenceINS_6fusion4consINS4_9referenceIKNS4_4ruleIN9__gnu_cxx17__normal_iteratorIPcNSt7__cxx1112basic_stringIcSt11char_traitsIcESaIcEEEEEFSK_vENS3_11unused_typeESN_SN_EEEENS9_INS4_12literal_charINS3_13char_encoding8standardELb1ELb0EEENS9_ISQ_NS8_4nil_EEEEEEEEEN4mpl_5bool_ILb0EEEEEE6manageERKNS1_15function_bufferERS15_NS1_30functor_manager_operation_typeE@Base 0.87
 _ZN5boost6detail8function15functor_managerINS_6spirit2qi6detail13parser_binderINS4_8sequenceINS_6fusion4consINS4_9referenceIKNS4_4ruleIN9__gnu_cxx17__normal_iteratorIPcNSt7__cxx1112basic_stringIcSt11char_traitsIcESaIcEEEEEFSt4pairISK_SK_EvENS3_11unused_typeESP_SP_EEEENS9_INS4_6kleeneINS7_INS9_INS4_12literal_charINS3_13char_encoding8standardELb1ELb0EEENS9_ISS_NS8_4nil_EEEEEEEEESY_EEEEEEN4mpl_5bool_ILb0EEEEEE6manageERKNS1_15function_bufferERS1B_NS1_30functor_manager_operation_typeE@Base 0.87
 _ZN5boost6detail8function16has_empty_targetEz@Base 0.87
 _ZN5boost6detail8function21function_obj_invoker4INS_6spirit2qi6detail13parser_binderINS4_4plusINS4_8char_setINS3_13char_encoding8standardELb0ELb0EEEEEN4mpl_5bool_ILb0EEEEEbRN9__gnu_cxx17__normal_iteratorIPcNSt7__cxx1112basic_stringIcSt11char_traitsIcESaIcEEEEERKSQ_RNS3_7contextINS_6fusion4consIRSP_NSV_4nil_EEENSV_6vectorIJEEEEERKNS3_11unused_typeEE6invokeERNS1_15function_bufferESR_ST_S13_S16_@Base 0.87
 _ZN5boost6detail8function21function_obj_invoker4INS_6spirit2qi6detail13parser_binderINS4_8sequenceINS_6fusion4consINS4_8char_setINS3_13char_encoding8standardELb0ELb0EEENS9_INS4_6kleeneISD_EENS8_4nil_EEEEEEEN4mpl_5bool_ILb0EEEEEbRN9__gnu_cxx17__normal_iteratorIPcNSt7__cxx1112basic_stringIcSt11char_traitsIcESaIcEEEEERKSX_RNS3_7contextINS9_IRSW_SG_EENS8_6vectorIJEEEEERKNS3_11unused_typeEE6invokeERNS1_15function_bufferESY_S10_S17_S1A_@Base 0.87
 _ZN5boost6detail8function21function_obj_invoker4INS_6spirit2qi6detail13parser_binderINS4_8sequenceINS_6fusion4consINS4_9referenceIKNS4_4ruleIN9__gnu_cxx17__normal_iteratorIPcNSt7__cxx1112basic_stringIcSt11char_traitsIcESaIcEEEEEFSK_vENS3_11unused_typeESN_SN_EEEENS9_INS4_12literal_charINS3_13char_encoding8standardELb1ELb0EEENS9_ISQ_NS8_4nil_EEEEEEEEEN4mpl_5bool_ILb0EEEEEbRSL_RKSL_RNS3_7contextINS9_IRSt4pairISK_SK_ESV_EENS8_6vectorIJEEEEERKSN_E6invokeERNS1_15function_bufferES14_S16_S1F_S1H_@Base 0.87
 _ZN5boost6detail8function21function_obj_invoker4INS_6spirit2qi6detail13parser_binderINS4_8sequenceINS_6fusion4consINS4_9referenceIKNS4_4ruleIN9__gnu_cxx17__normal_iteratorIPcNSt7__cxx1112basic_stringIcSt11char_traitsIcESaIcEEEEEFSt4pairISK_SK_EvENS3_11unused_typeESP_SP_EEEENS9_INS4_6kleeneINS7_INS9_INS4_12literal_charINS3_13char_encoding8standardELb1ELb0EEENS9_ISS_NS8_4nil_EEEEEEEEESY_EEEEEEN4mpl_5bool_ILb0EEEEEbRSL_RKSL_RNS3_7contextINS9_IRSt3mapISK_SK_St4lessISK_ESaISM_IKSK_SK_EEESY_EENS8_6vectorIJEEEEERKSP_E6invokeERNS1_15function_bufferES1A_S1C_S1Q_S1S_@Base 0.87
 _ZN5boost6spirit2qi4ruleIN9__gnu_cxx17__normal_iteratorIPcNSt7__cxx1112basic_stringIcSt11char_traitsIcESaIcEEEEEFSB_vENS0_11unused_typeESE_SE_ED1Ev@Base 0.87
 _ZN5boost6spirit2qi4ruleIN9__gnu_cxx17__normal_iteratorIPcNSt7__cxx1112basic_stringIcSt11char_traitsIcESaIcEEEEEFSB_vENS0_11unused_typeESE_SE_ED2Ev@Base 0.87
 _ZN5boost6system12system_errorC1ERKS1_@Base 0.87
 _ZN5boost6system12system_errorC2ERKS1_@Base 0.87
 _ZN5boost6system12system_errorD0Ev@Base 0.87
 _ZN5boost6system12system_errorD1Ev@Base 0.87
 _ZN5boost6system12system_errorD2Ev@Base 0.87
 _ZN5boost9function4IbRN9__gnu_cxx17__normal_iteratorIPcNSt7__cxx1112basic_stringIcSt11char_traitsIcESaIcEEEEERKSA_RNS_6spirit7contextINS_6fusion4consIRS9_NSG_4nil_EEENSG_6vectorIJEEEEERKNSE_11unused_typeEE4swapERSS_@Base 0.87
 _ZN5boost9function4IbRN9__gnu_cxx17__normal_iteratorIPcNSt7__cxx1112basic_stringIcSt11char_traitsIcESaIcEEEEERKSA_RNS_6spirit7contextINS_6fusion4consIRS9_NSG_4nil_EEENSG_6vectorIJEEEEERKNSE_11unused_typeEE5dummy7nonnullEv@Base 0.87
 _ZN5boost9function4IbRN9__gnu_cxx17__normal_iteratorIPcNSt7__cxx1112basic_stringIcSt11char_traitsIcESaIcEEEEERKSA_RNS_6spirit7contextINS_6fusion4consIRSt3mapIS9_S9_St4lessIS9_ESaISt4pairIKS9_S9_EEENSG_4nil_EEENSG_6vectorIJEEEEERKNSE_11unused_typeEE11move_assignERS10_@Base 0.87
 _ZN5boost9function4IbRN9__gnu_cxx17__normal_iteratorIPcNSt7__cxx1112basic_stringIcSt11char_traitsIcESaIcEEEEERKSA_RNS_6spirit7contextINS_6fusion4consIRSt3mapIS9_S9_St4lessIS9_ESaISt4pairIKS9_S9_EEENSG_4nil_EEENSG_6vectorIJEEEEERKNSE_11unused_typeEE5dummy7nonnullEv@Base 0.87
 _ZN5boost9function4IbRN9__gnu_cxx17__normal_iteratorIPcNSt7__cxx1112basic_stringIcSt11char_traitsIcESaIcEEEEERKSA_RNS_6spirit7contextINS_6fusion4consIRSt4pairIS9_S9_ENSG_4nil_EEENSG_6vectorIJEEEEERKNSE_11unused_typeEE11move_assignERSU_@Base 0.87
 _ZN5boost9function4IbRN9__gnu_cxx17__normal_iteratorIPcNSt7__cxx1112basic_stringIcSt11char_traitsIcESaIcEEEEERKSA_RNS_6spirit7contextINS_6fusion4consIRSt4pairIS9_S9_ENSG_4nil_EEENSG_6vectorIJEEEEERKNSE_11unused_typeEE5dummy7nonnullEv@Base 0.87
 _ZN5boost9intrusive11bstree_implINS0_8mhtraitsIN4ceph12timer_detail5timerINS3_11time_detail10mono_clockEE5eventENS0_15set_member_hookINS0_9link_modeILNS0_14link_mode_typeE0EEEvvvEEXadL_ZNS9_10event_linkEEEEEvNS8_12EventCompareEmLb0ELNS0_10algo_typesE5EvE13insert_uniqueERS9_@Base 0.87
 _ZN5boost9intrusive11bstree_implINS0_8mhtraitsIN4ceph12timer_detail5timerINS3_11time_detail10mono_clockEE5eventENS0_15set_member_hookINS0_9link_modeILNS0_14link_mode_typeE0EEEvvvEEXadL_ZNS9_13schedule_linkEEEEEvNS8_12SchedCompareEmLb0ELNS0_10algo_typesE5EvE13insert_uniqueERS9_@Base 0.87
 _ZN5boost9intrusive17bstree_algorithmsINS0_18rbtree_node_traitsIPvLb0EEEE12rotate_rightERKPNS0_11rbtree_nodeIS3_EESA_SA_SA_@Base 0.87
 _ZN5boost9intrusive17rbtree_algorithmsINS0_18rbtree_node_traitsIPvLb0EEEE25rebalance_after_insertionERKPNS0_11rbtree_nodeIS3_EES8_@Base 0.87
 _ZN5xlistIP11MetaRequestE4item13remove_myselfEv@Base 0.87
 _ZN5xlistIP11MetaRequestE9push_backEPNS2_4itemE@Base 0.87
 _ZN5xlistIP5InodeE4item13remove_myselfEv@Base 0.87
 _ZN5xlistIP5InodeE9push_backEPNS2_4itemE@Base 0.87
 _ZN5xlistIP5InodeED1Ev@Base 0.87
 _ZN5xlistIP5InodeED2Ev@Base 0.87
 _ZN6C_Cond6finishEi@Base 0.87
 _ZN6C_CondD0Ev@Base 0.87
 _ZN6C_CondD1Ev@Base 0.87
 _ZN6C_CondD2Ev@Base 0.87
 _ZN6C_Lock6finishEi@Base 0.87
 _ZN6C_LockD0Ev@Base 0.87
 _ZN6C_LockD1Ev@Base 0.87
 _ZN6C_LockD2Ev@Base 0.87
 _ZN6Client10_create_fhEP5Inodeii@Base 0.87
 _ZN6Client10_do_lookupEP5InodeRKNSt7__cxx1112basic_stringIcSt11char_traitsIcESaIcEEEiPN5boost13intrusive_ptrIS0_EEii@Base 0.87
 _ZN6Client10_fallocateEP2Fhill@Base 0.87
 _ZN6Client10_listxattrEP5InodePcmii@Base 0.87
 _ZN6Client10_read_syncEP2FhmmPN4ceph6buffer4listEPb@Base 0.87
 _ZN6Client10check_capsEP5Inodeb@Base 0.87
 _ZN6Client10dump_cacheEPN4ceph9FormatterE@Base 0.87
 _ZN6Client10dump_inodeEPN4ceph9FormatterEP5InodeRSt3setIS4_St4lessIS4_ESaIS4_EEb@Base 0.87
 _ZN6Client10flistxattrEiPcm@Base 0.87
 _ZN6Client10flush_capsEP5InodeP11MetaSession@Base 0.87
 _ZN6Client10flush_capsEv@Base 0.87
 _ZN6Client10ll_getattrEP5InodeP4statii@Base 0.87
 _ZN6Client10ll_opendirEP5InodeiPP12dir_result_tii@Base 0.87
 _ZN6Client10ll_osdaddrEiPj@Base 0.87
 _ZN6Client10ll_releaseEP2Fh@Base 0.87
 _ZN6Client10ll_setattrEP5InodeP4statiii@Base 0.87
 _ZN6Client10ll_symlinkEP5InodePKcS3_P4statPS1_ii@Base 0.87
 _ZN6Client10llistxattrEPKcPcm@Base 0.87
 _ZN6Client10lookup_inoE9inodeno_tPP5Inode@Base 0.87
 _ZN6Client10may_createEP5Inodeii@Base 0.87
 _ZN6Client10may_deleteEP5InodePKcii@Base 0.87
 _ZN6Client10may_lookupEP5Inodeii@Base 0.87
 _ZN6Client10remove_capEP3Capb@Base 0.87
 _ZN6Client10renew_capsEP11MetaSession@Base 0.87
 _ZN6Client10renew_capsEv@Base 0.87
 _ZN6Client10trim_cacheEb@Base 0.87
 _ZN6Client11C_Readahead6finishEi@Base 0.87
 _ZN6Client11C_ReadaheadC1EPS_P2Fh@Base 0.87
 _ZN6Client11C_ReadaheadC2EPS_P2Fh@Base 0.87
 _ZN6Client11C_ReadaheadD0Ev@Base 0.87
 _ZN6Client11C_ReadaheadD1Ev@Base 0.87
 _ZN6Client11C_ReadaheadD2Ev@Base 0.87
 _ZN6Client11CommandHook4callENSt7__cxx1112basic_stringIcSt11char_traitsIcESaIcEEERSt3mapIS6_N5boost7variantIS6_JbldSt6vectorIS6_SaIS6_EEEEESt4lessIS6_ESaISt4pairIKS6_SD_EEES6_RN4ceph6buffer4listE@Base 0.87
 _ZN6Client11CommandHookC1EPS_@Base 0.87
 _ZN6Client11CommandHookC2EPS_@Base 0.87
 _ZN6Client11CommandHookD0Ev@Base 0.87
 _ZN6Client11CommandHookD1Ev@Base 0.87
 _ZN6Client11CommandHookD2Ev@Base 0.87
 _ZN6Client11_do_setattrEP5InodeP4statiiiPN5boost13intrusive_ptrIS0_EE@Base 0.87
 _ZN6Client11_read_asyncEP2FhmmPN4ceph6buffer4listE@Base 0.87
 _ZN6Client11_release_fhEP2Fh@Base 0.87
 _ZN6Client11drop_cachesEv@Base 0.87
 _ZN6Client11dump_statusEPN4ceph9FormatterE@Base 0.87
 _ZN6Client11fill_direntEP6direntPKciml@Base 0.87
 _ZN6Client11flush_snapsEP5Inodeb@Base 0.87
 _ZN6Client11get_cap_refEP5Inodei@Base 0.87
 _ZN6Client11get_pool_idEPKc@Base 0.87
 _ZN6Client11handle_capsEP11MClientCaps@Base 0.87
 _ZN6Client11handle_snapEP11MClientSnap@Base 0.87
 _ZN6Client11ll_fsyncdirEP12dir_result_t@Base 0.87
 _ZN6Client11ll_getxattrEP5InodePKcPvmii@Base 0.87
 _ZN6Client11ll_num_osdsEv@Base 0.87
 _ZN6Client11ll_readlinkEP5InodePcmii@Base 0.87
 _ZN6Client11ll_setxattrEP5InodePKcPKvmiii@Base 0.87
 _ZN6Client11ll_snap_seqEP5Inode@Base 0.87
 _ZN6Client11lock_fh_posEP2Fh@Base 0.87
 _ZN6Client11lookup_hashE9inodeno_tS0_PKc@Base 0.87
 _ZN6Client11lookup_nameEP5InodeS1_@Base 0.87
 _ZN6Client11may_setattrEP5InodeP4statiii@Base 0.87
 _ZN6Client11mds_commandERKNSt7__cxx1112basic_stringIcSt11char_traitsIcESaIcEEERKSt6vectorIS5_SaIS5_EERKN4ceph6buffer4listEPSF_PS5_P7Context@Base 0.87
 _ZN6Client11ms_dispatchEP7Message@Base 0.87
 _ZN6Client11put_cap_refEP5Inodei@Base 0.87
 _ZN6Client11put_requestEP11MetaRequest@Base 0.87
 _ZN6Client11removexattrEPKcS1_@Base 0.87
 _ZN6Client11resolve_mdsERKNSt7__cxx1112basic_stringIcSt11char_traitsIcESaIcEEEPSt6vectorI9mds_gid_tSaIS9_EE@Base 0.87
 _ZN6Client11trim_dentryEP6Dentry@Base 0.87
 _ZN6Client12_dir_vxattrsE@Base 0.87
 _ZN6Client12_do_filelockEP5InodeP2FhiiiP5flockm@Base 0.87
 _ZN6Client12_do_setxattrEP5InodePKcPKvmiii@Base 0.87
 _ZN6Client12_flush_rangeEP5Inodelm@Base 0.87
 _ZN6Client12_get_inodenoEP5Inode@Base 0.87
 _ZN6Client12_get_vxattrsEP5Inode@Base 0.87
 _ZN6Client12_removexattrEP5InodePKcii@Base 0.87
 _ZN6Client12_removexattrERN5boost13intrusive_ptrI5InodeEEPKc@Base 0.87
 _ZN6Client12authenticateEv@Base 0.87
 _ZN6Client12fremovexattrEiPKc@Base 0.87
 _ZN6Client12get_osd_addrEiR13entity_addr_t@Base 0.87
 _ZN6Client12get_root_inoEv@Base 0.87
 _ZN6Client12got_mds_pushEP11MetaSession@Base 0.87
 _ZN6Client12handle_leaseEP12MClientLease@Base 0.87
 _ZN6Client12handle_quotaEP12MClientQuota@Base 0.87
 _ZN6Client12insert_traceEP11MetaRequestP11MetaSession@Base 0.87
 _ZN6Client12ll_fallocateEP2Fhill@Base 0.87
 _ZN6Client12ll_get_inodeE10vinodeno_t@Base 0.87
 _ZN6Client12ll_get_inodeEm@Base 0.87
 _ZN6Client12ll_interruptEPv@Base 0.87
 _ZN6Client12ll_listxattrEP5InodePcmii@Base 0.87
 _ZN6Client12lremovexattrEPKcS1_@Base 0.87
 _ZN6Client12make_requestEP11MetaRequestiiPN5boost13intrusive_ptrI5InodeEEPbiPN4ceph6buffer4listE@Base 0.87
 _ZN6Client12may_hardlinkEP5Inodeii@Base 0.87
 _ZN6Client12open_snapdirEP5Inode@Base 0.87
 _ZN6Client12readdir_r_cbEP12dir_result_tPFiPvP6direntP4statilES2_@Base 0.87
 _ZN6Client12send_requestEP11MetaRequestP11MetaSessionb@Base 0.87
 _ZN6Client12wait_on_listERNSt7__cxx114listIP4CondSaIS3_EEE@Base 0.87
 _ZN6Client13_file_vxattrsE@Base 0.87
 _ZN6Client13_getgrouplistEPPjii@Base 0.87
 _ZN6Client13_ll_drop_pinsEv@Base 0.87
 _ZN6Client13_match_vxattrEP5InodePKc@Base 0.87
 _ZN6Client13get_caps_usedEP5Inode@Base 0.87
 _ZN6Client13get_local_osdEv@Base 0.87
 _ZN6Client13get_or_createEP5InodePKcPP6Dentryb@Base 0.87
 _ZN6Client13get_pool_nameB5cxx11El@Base 0.87
 _ZN6Client13handle_fs_mapEP6MFSMap@Base 0.87
 _ZN6Client13kick_requestsEP11MetaSession@Base 0.87
 _ZN6Client13ll_get_snapidEP5Inode@Base 0.87
 _ZN6Client13ll_read_blockEP5InodemPcmmP13file_layout_t@Base 0.87
 _ZN6Client13ll_releasedirEP12dir_result_t@Base 0.87
 _ZN6Client13lookup_parentEP5InodePS1_@Base 0.87
 _ZN6Client13map_faked_inoEm@Base 0.87
 _ZN6Client13readdirplus_rEP12dir_result_tP6direntP4statPi@Base 0.87
 _ZN6Client13uninline_dataEP5InodeP7Context@Base 0.87
 _ZN6Client13unlock_fh_posEP2Fh@Base 0.87
 _ZN6Client14_map_faked_inoEm@Base 0.87
 _ZN6Client14add_update_capEP5InodeP11MetaSessionmjjj9inodeno_ti@Base 0.87
 _ZN6Client14get_quota_rootEP5Inode@Base 0.87
 _ZN6Client14get_snap_realmE9inodeno_t@Base 0.87
 _ZN6Client14handle_mds_mapEP7MMDSMap@Base 0.87
 _ZN6Client14handle_osd_mapEP7MOSDMap@Base 0.87
 _ZN6Client14ll_file_layoutEP2FhP13file_layout_t@Base 0.87
 _ZN6Client14ll_file_layoutEP5InodeP13file_layout_t@Base 0.87
 _ZN6Client14ll_removexattrEP5InodePKcii@Base 0.87
 _ZN6Client14ll_stripe_unitEP5Inode@Base 0.87
 _ZN6Client14ll_write_blockEP5InodemPcmmP13file_layout_tmj@Base 0.87
 _ZN6Client14put_snap_realmEP9SnapRealm@Base 0.87
 _ZN6Client14queue_cap_snapEP5InodeR11SnapContext@Base 0.87
 _ZN6Client14send_reconnectEP11MetaSession@Base 0.87
 _ZN6Client14wait_sync_capsEP5Inodem@Base 0.87
 _ZN6Client14wait_sync_capsEm@Base 0.87
 _ZN6Client15_close_sessionsEv@Base 0.87
 _ZN6Client15_preadv_pwritevEiPK5iovecjlb@Base 0.87
 _ZN6Client15_vxattrcb_quotaEP5InodePcm@Base 0.87
 _ZN6Client15check_cap_issueEP5InodeP3Capj@Base 0.87
 _ZN6Client15check_pool_permEP5Inodei@Base 0.87
 _ZN6Client15describe_layoutEPKcP13file_layout_t@Base 0.87
 _ZN6Client15finish_cap_snapEP5InodeP7CapSnapi@Base 0.87
 _ZN6Client15get_caps_issuedEPKc@Base 0.87
 _ZN6Client15get_caps_issuedEi@Base 0.87
 _ZN6Client15mark_caps_dirtyEP5Inodei@Base 0.87
 _ZN6Client15ms_handle_resetEP10Connection@Base 0.87
 _ZN6Client15remove_all_capsEP5Inode@Base 0.87
 _ZN6Client15set_filer_flagsEi@Base 0.87
 _ZN6Client15tear_down_cacheEv@Base 0.87
 _ZN6Client15update_dir_distEP5InodeP7DirStat@Base 0.87
 _ZN6Client15update_metadataERKNSt7__cxx1112basic_stringIcSt11char_traitsIcESaIcEEES7_@Base 0.87
 _ZN6Client16_get_mds_sessionEiP10Connection@Base 0.87
 _ZN6Client16_posix_acl_chmodEP5Inodejii@Base 0.87
 _ZN6Client16_vxattrcb_layoutEP5InodePcm@Base 0.87
 _ZN6Client16add_update_inodeEP9InodeStat7utime_tP11MetaSession@Base 0.87
 _ZN6Client16enumerate_layoutEiRSt6vectorI12ObjectExtentSaIS1_EEll@Base 0.87
 _ZN6Client16fdescribe_layoutEiP13file_layout_t@Base 0.87
 _ZN6Client16handle_cap_grantEP11MetaSessionP5InodeP3CapP11MClientCaps@Base 0.87
 _ZN6Client16handle_cap_truncEP11MetaSessionP5InodeP11MClientCaps@Base 0.87
 _ZN6Client16inode_permissionEP5InodejR10UserGroupsj@Base 0.87
 _ZN6Client16is_dir_operationEP11MetaRequest@Base 0.87
 _ZN6Client16lazyio_propogateEilm@Base 0.87
 _ZN6Client16ll_commit_blocksEP5Inodemm@Base 0.87
 _ZN6Client16signal_cond_listERNSt7__cxx114listIP4CondSaIS3_EEE@Base 0.87
 _ZN6Client16xattr_permissionEP5InodePKcjii@Base 0.87
 _ZN6Client17RequestUserGroups5is_inEj@Base 0.87
 _ZN6Client17RequestUserGroups7get_gidEv@Base 0.87
 _ZN6Client17RequestUserGroups8get_gidsEPPKj@Base 0.87
 _ZN6Client17RequestUserGroupsD0Ev@Base 0.87
 _ZN6Client17RequestUserGroupsD1Ev@Base 0.87
 _ZN6Client17RequestUserGroupsD2Ev@Base 0.87
 _ZN6Client17_assign_faked_inoEP5Inode@Base 0.87
 _ZN6Client17_async_invalidateE10vinodeno_tll@Base 0.87
 _ZN6Client17_encode_filelocksEP5InodeRN4ceph6buffer4listE@Base 0.87
 _ZN6Client17_flushed_cap_snapEP5Inode8snapid_t@Base 0.87
 _ZN6Client17_getattr_for_permEP5Inodeii@Base 0.87
 _ZN6Client17_handle_full_flagEl@Base 0.87
 _ZN6Client17_open_mds_sessionEi@Base 0.87
 _ZN6Client17_posix_acl_createEP5InodePjRN4ceph6buffer4listEii@Base 0.87
 _ZN6Client17_readdir_cache_cbEP12dir_result_tPFiPvP6direntP4statilES2_@Base 0.87
 _ZN6Client17_readdir_get_fragEP12dir_result_t@Base 0.87
 _ZN6Client17_reset_faked_inosEv@Base 0.87
 _ZN6Client17cap_delay_requeueEP5Inode@Base 0.87
 _ZN6Client17choose_target_mdsEP11MetaRequest@Base 0.87
 _ZN6Client17clear_filer_flagsEi@Base 0.87
 _ZN6Client17dump_mds_requestsEPN4ceph9FormatterE@Base 0.87
 _ZN6Client17dump_mds_sessionsEPN4ceph9FormatterE@Base 0.87
 _ZN6Client17handle_cap_exportEP11MetaSessionP5InodeP11MClientCaps@Base 0.87
 _ZN6Client17handle_cap_importEP11MetaSessionP5InodeP11MClientCaps@Base 0.87
 _ZN6Client17have_open_sessionEi@Base 0.87
 _ZN6Client17ll_get_stripe_osdEP5InodemP13file_layout_t@Base 0.87
 _ZN6Client17ms_get_authorizerEiPP14AuthAuthorizerb@Base 0.87
 _ZN6Client17ms_handle_connectEP10Connection@Base 0.87
 _ZN6Client17populate_metadataEv@Base 0.87
 _ZN6Client17sync_write_commitERN5boost13intrusive_ptrI5InodeEE@Base 0.87
 _ZN6Client17update_snap_traceERN4ceph6buffer4listEb@Base 0.87
 _ZN6Client18_close_mds_sessionEP11MetaSession@Base 0.87
 _ZN6Client18_readdir_next_fragEP12dir_result_t@Base 0.87
 _ZN6Client18_release_faked_inoEP5Inode@Base 0.87
 _ZN6Client18_release_filelocksEP2Fh@Base 0.87
 _ZN6Client18_try_to_trim_inodeEP5Inodeb@Base 0.87
 _ZN6Client18_update_lock_stateEP5flockmP17ceph_lock_state_t@Base 0.87
 _ZN6Client18flush_cap_releasesEv@Base 0.87
 _ZN6Client18flush_set_callbackEPN12ObjectCacher9ObjectSetE@Base 0.87
 _ZN6Client18handle_conf_changeEPK11md_config_tRKSt3setINSt7__cxx1112basic_stringIcSt11char_traitsIcESaIcEEESt4lessIS9_ESaIS9_EE@Base 0.87
 _ZN6Client18kick_flushing_capsEP11MetaSession@Base 0.87
 _ZN6Client18lazyio_synchronizeEilm@Base 0.87
 _ZN6Client18mark_caps_flushingEP5InodePm@Base 0.87
 _ZN6Client18unregister_requestEP11MetaRequest@Base 0.87
 _ZN6Client18verify_reply_traceEiP11MetaRequestP12MClientReplyPN5boost13intrusive_ptrI5InodeEEPbii@Base 0.87
 _ZN6Client18wake_inode_waitersEP11MetaSession@Base 0.87
 _ZN6Client19_closed_mds_sessionEP11MetaSession@Base 0.87
 _ZN6Client19_interrupt_filelockEP11MetaRequest@Base 0.87
 _ZN6Client19_vxattrcb_dir_filesEP5InodePcm@Base 0.87
 _ZN6Client19adjust_realm_parentEP9SnapRealm9inodeno_t@Base 0.87
 _ZN6Client19connect_mds_targetsEi@Base 0.87
 _ZN6Client19encode_cap_releasesEP11MetaRequesti@Base 0.87
 _ZN6Client19handle_client_replyEP12MClientReply@Base 0.87
 _ZN6Client19insert_dentry_inodeEP3DirRKNSt7__cxx1112basic_stringIcSt11char_traitsIcESaIcEEEP9LeaseStatP5Inode7utime_tP11MetaSessionP6Dentry@Base 0.87
 _ZN6Client19remove_session_capsEP11MetaSession@Base 0.87
 _ZN6Client19signal_context_listERNSt7__cxx114listIP7ContextSaIS3_EEE@Base 0.87
 _ZN6Client19update_dentry_leaseEP6DentryP9LeaseStat7utime_tP11MetaSession@Base 0.87
 _ZN6Client20_kick_stale_sessionsEv@Base 0.87
 _ZN6Client20_vxattrcb_dir_rbytesEP5InodePcm@Base 0.87
 _ZN6Client20_vxattrcb_dir_rctimeEP5InodePcm@Base 0.87
 _ZN6Client20_vxattrcb_dir_rfilesEP5InodePcm@Base 0.87
 _ZN6Client20build_client_requestEP11MetaRequest@Base 0.87
 _ZN6Client20encode_inode_releaseEP5InodeP11MetaRequestiiii@Base 0.87
 _ZN6Client20get_file_extent_osdsEilPlRSt6vectorIiSaIiEE@Base 0.87
 _ZN6Client20get_pool_replicationEl@Base 0.87
 _ZN6Client20get_snap_realm_maybeE9inodeno_t@Base 0.87
 _ZN6Client20handle_cap_flush_ackEP11MetaSessionP5InodeP3CapP11MClientCaps@Base 0.87
 _ZN6Client20handle_command_replyEP13MCommandReply@Base 0.87
 _ZN6Client20kick_requests_closedEP11MetaSession@Base 0.87
 _ZN6Client20test_dentry_handlingEb@Base 0.87
 _ZN6Client20wait_on_context_listERNSt7__cxx114listIP7ContextSaIS3_EEE@Base 0.87
 _ZN6Client20wait_unsafe_requestsEv@Base 0.87
 _ZN6Client21_posix_acl_permissionEP5InodejR10UserGroupsj@Base 0.87
 _ZN6Client21_vxattrcb_dir_entriesEP5InodePcm@Base 0.87
 _ZN6Client21_vxattrcb_dir_subdirsEP5InodePcm@Base 0.87
 _ZN6Client21_vxattrcb_layout_poolEP5InodePcm@Base 0.87
 _ZN6Client21check_data_pool_existENSt7__cxx1112basic_stringIcSt11char_traitsIcESaIcEEES5_PK6OSDMap@Base 0.87
 _ZN6Client21check_quota_conditionEP5InodeSt8functionIFbRKS0_EE@Base 0.87
 _ZN6Client21encode_dentry_releaseEP6DentryP11MetaRequestiii@Base 0.87
 _ZN6Client21handle_client_sessionEP14MClientSession@Base 0.87
 _ZN6Client21kick_maxsize_requestsEP11MetaSession@Base 0.87
 _ZN6Client21ll_register_callbacksEP20client_callback_args@Base 0.87
 _ZN6Client21set_cap_epoch_barrierEj@Base 0.87
 _ZN6Client22_readdir_rechoose_fragEP12dir_result_t@Base 0.87
 _ZN6Client22_vxattrcb_dir_rentriesEP5InodePcm@Base 0.87
 _ZN6Client22_vxattrcb_dir_rsubdirsEP5InodePcm@Base 0.87
 _ZN6Client22_vxattrcb_quota_existsEP5Inode@Base 0.87
 _ZN6Client22force_session_readonlyEP11MetaSession@Base 0.87
 _ZN6Client22get_osd_crush_locationEiRSt6vectorISt4pairINSt7__cxx1112basic_stringIcSt11char_traitsIcESaIcEEES7_ESaIS8_EE@Base 0.87
 _ZN6Client22insert_readdir_resultsEP11MetaRequestP11MetaSessionP5Inode@Base 0.87
 _ZN6Client22ll_get_internal_offsetEP5Inodem@Base 0.87
 _ZN6Client22ms_handle_remote_resetEP10Connection@Base 0.87
 _ZN6Client22resend_unsafe_requestsEP11MetaSession@Base 0.87
 _ZN6Client22update_inode_file_bitsEP5Inodemmmm7utime_tS2_S2_mRN4ceph6buffer4listEi@Base 0.87
 _ZN6Client23_invalidate_inode_cacheEP5Inode@Base 0.87
 _ZN6Client23_invalidate_inode_cacheEP5Inodell@Base 0.87
 _ZN6Client23_vxattrcb_layout_existsEP5Inode@Base 0.87
 _ZN6Client23get_file_stripe_addressEilRSt6vectorI13entity_addr_tSaIS1_EE@Base 0.87
 _ZN6Client23is_quota_bytes_exceededEP5Inodel@Base 0.87
 _ZN6Client23is_quota_files_exceededEP5Inode@Base 0.87
 _ZN6Client24_async_dentry_invalidateE10vinodeno_tS0_RNSt7__cxx1112basic_stringIcSt11char_traitsIcESaIcEEE@Base 0.87
 _ZN6Client24_get_or_open_mds_sessionEi@Base 0.87
 _ZN6Client24_vxattrs_calcu_name_sizeEPKNS_6VXattrE@Base 0.87
 _ZN6Client24early_kick_flushing_capsEP11MetaSession@Base 0.87
 _ZN6Client24handle_cap_flushsnap_ackEP11MetaSessionP5InodeP11MClientCaps@Base 0.87
 _ZN6Client24trim_cache_for_reconnectEP11MetaSession@Base 0.87
 _ZN6Client25_invalidate_kernel_dcacheEv@Base 0.87
 _ZN6Client25_readdir_drop_dirp_bufferEP12dir_result_t@Base 0.87
 _ZN6Client25_vxattrcb_quota_max_bytesEP5InodePcm@Base 0.87
 _ZN6Client25_vxattrcb_quota_max_filesEP5InodePcm@Base 0.87
 _ZN6Client26_fragmap_remove_non_leavesEP5Inode@Base 0.87
 _ZN6Client26is_quota_bytes_approachingEP5Inode@Base 0.87
 _ZN6Client28_vxattrcb_layout_object_sizeEP5InodePcm@Base 0.87
 _ZN6Client28_vxattrcb_layout_stripe_unitEP5InodePcm@Base 0.87
 _ZN6Client28adjust_session_flushing_capsEP5InodeP11MetaSessionS3_@Base 0.87
 _ZN6Client29_schedule_invalidate_callbackEP5Inodell@Base 0.87
 _ZN6Client29_vxattrcb_layout_stripe_countEP5InodePcm@Base 0.87
 _ZN6Client29handle_client_request_forwardEP21MClientRequestForward@Base 0.87
 _ZN6Client30clear_dir_complete_and_orderedEP5Inodeb@Base 0.87
 _ZN6Client31_vxattrcb_layout_pool_namespaceEP5InodePcm@Base 0.87
 _ZN6Client33invalidate_snaprealm_and_childrenEP9SnapRealm@Base 0.87
 _ZN6Client36_schedule_invalidate_dentry_callbackEP6Dentryb@Base 0.87
 _ZN6Client4initEv@Base 0.87
 _ZN6Client4linkEP3DirRKNSt7__cxx1112basic_stringIcSt11char_traitsIcESaIcEEEP5InodeP6Dentry@Base 0.87
 _ZN6Client4linkEPKcS1_@Base 0.87
 _ZN6Client4openEPKcij@Base 0.87
 _ZN6Client4openEPKcijiiiS1_@Base 0.87
 _ZN6Client4readEiPcll@Base 0.87
 _ZN6Client4statEPKcP4statP11frag_info_ti@Base 0.87
 _ZN6Client4tickEv@Base 0.87
 _ZN6Client5_linkEP5InodeS1_PKciiPN5boost13intrusive_ptrIS0_EE@Base 0.87
 _ZN6Client5_openEP5InodeijPP2Fhii@Base 0.87
 _ZN6Client5_readEP2FhlmPN4ceph6buffer4listE@Base 0.87
 _ZN6Client5chdirEPKcRNSt7__cxx1112basic_stringIcSt11char_traitsIcESaIcEEE@Base 0.87
 _ZN6Client5chmodEPKcj@Base 0.87
 _ZN6Client5chownEPKcii@Base 0.87
 _ZN6Client5closeEi@Base 0.87
 _ZN6Client5flockEiim@Base 0.87
 _ZN6Client5fstatEiP4stati@Base 0.87
 _ZN6Client5fsyncEib@Base 0.87
 _ZN6Client5lseekEili@Base 0.87
 _ZN6Client5lstatEPKcP4statP11frag_info_ti@Base 0.87
 _ZN6Client5mkdirEPKcj@Base 0.87
 _ZN6Client5mknodEPKcjm@Base 0.87
 _ZN6Client5mountERKNSt7__cxx1112basic_stringIcSt11char_traitsIcESaIcEEEb@Base 0.87
 _ZN6Client5rmdirEPKc@Base 0.87
 _ZN6Client5utimeEPKcP7utimbuf@Base 0.87
 _ZN6Client5writeEiPKcll@Base 0.87
 _ZN6Client6_flockEP2Fhim@Base 0.87
 _ZN6Client6_flushEP2Fh@Base 0.87
 _ZN6Client6_flushEP5InodeP7Context@Base 0.87
 _ZN6Client6_fsyncEP2Fhb@Base 0.87
 _ZN6Client6_fsyncEP5Inodeb@Base 0.87
 _ZN6Client6_getlkEP2FhP5flockm@Base 0.87
 _ZN6Client6_lseekEP2Fhli@Base 0.87
 _ZN6Client6_mkdirEP5InodePKcjiiPN5boost13intrusive_ptrIS0_EE@Base 0.87
 _ZN6Client6_mknodEP5InodePKcjmiiPN5boost13intrusive_ptrIS0_EE@Base 0.87
 _ZN6Client6_rmdirEP5InodePKcii@Base 0.87
 _ZN6Client6_setlkEP2FhP5flockmi@Base 0.87
 _ZN6Client6_writeEP2FhlmPKcPK5ioveci@Base 0.87
 _ZN6Client6fchmodEij@Base 0.87
 _ZN6Client6fchownEiii@Base 0.87
 _ZN6Client6getcwdERNSt7__cxx1112basic_stringIcSt11char_traitsIcESaIcEEE@Base 0.87
 _ZN6Client6getdirEPKcRNSt7__cxx114listINS2_12basic_stringIcSt11char_traitsIcESaIcEEESaIS8_EEE@Base 0.87
 _ZN6Client6lchmodEPKcj@Base 0.87
 _ZN6Client6lchownEPKcii@Base 0.87
 _ZN6Client6ll_putEP5Inode@Base 0.87
 _ZN6Client6lutimeEPKcP7utimbuf@Base 0.87
 _ZN6Client6mkdirsEPKcj@Base 0.87
 _ZN6Client6mksnapEPKcS1_@Base 0.87
 _ZN6Client6preadvEiPK5iovecil@Base 0.87
 _ZN6Client6renameEPKcS1_@Base 0.87
 _ZN6Client6rmsnapEPKcS1_@Base 0.87
 _ZN6Client6statfsEPKcP7statvfs@Base 0.87
 _ZN6Client6unlinkEP6Dentrybb@Base 0.87
 _ZN6Client6unlinkEPKc@Base 0.87
 _ZN6Client7_createEP5InodePKcijPN5boost13intrusive_ptrIS0_EEPP2FhiiiS3_Pbii@Base 0.87
 _ZN6Client7_ll_getEP5Inode@Base 0.87
 _ZN6Client7_ll_putEP5Inodei@Base 0.87
 _ZN6Client7_lookupEP5InodeRKNSt7__cxx1112basic_stringIcSt11char_traitsIcESaIcEEEiPN5boost13intrusive_ptrIS0_EEii@Base 0.87
 _ZN6Client7_put_fhEP2Fh@Base 0.87
 _ZN6Client7_renameEP5InodePKcS1_S3_ii@Base 0.87
 _ZN6Client7_unlinkEP5InodePKcii@Base 0.87
 _ZN6Client7ll_linkEP5InodeS1_PKcP4statii@Base 0.87
 _ZN6Client7ll_openEP5InodeiPP2Fhii@Base 0.87
 _ZN6Client7ll_readEP2FhllPN4ceph6buffer4listE@Base 0.87
 _ZN6Client7ll_walkEPKcPP5InodeP4stat@Base 0.87
 _ZN6Client7opendirEPKcPP12dir_result_t@Base 0.87
 _ZN6Client7pwritevEiPK5iovecil@Base 0.87
 _ZN6Client7readdirEP12dir_result_t@Base 0.87
 _ZN6Client7seekdirEP12dir_result_tl@Base 0.87
 _ZN6Client7setattrEPKcP4stati@Base 0.87
 _ZN6Client7symlinkEPKcS1_@Base 0.87
 _ZN6Client7sync_fsEv@Base 0.87
 _ZN6Client7telldirEP12dir_result_t@Base 0.87
 _ZN6Client7unmountEv@Base 0.87
 _ZN6Client8_flushedEP5Inode@Base 0.87
 _ZN6Client8_getattrEP5Inodeiiib@Base 0.87
 _ZN6Client8_opendirEP5InodePP12dir_result_tii@Base 0.87
 _ZN6Client8_releaseEP5Inode@Base 0.87
 _ZN6Client8_setattrEP5InodeP4statiiiPN5boost13intrusive_ptrIS0_EE@Base 0.87
 _ZN6Client8_setattrERN5boost13intrusive_ptrI5InodeEEP4stati@Base 0.87
 _ZN6Client8_symlinkEP5InodePKcS3_iiPN5boost13intrusive_ptrIS0_EE@Base 0.87
 _ZN6Client8_sync_fsEv@Base 0.87
 _ZN6Client8closedirEP12dir_result_t@Base 0.87
 _ZN6Client8fsetattrEiP4stati@Base 0.87
 _ZN6Client8get_capsEP5InodeiiPil@Base 0.87
 _ZN6Client8get_rootEv@Base 0.87
 _ZN6Client8getxattrEPKcS1_Pvm@Base 0.87
 _ZN6Client8ll_flockEP2Fhim@Base 0.87
 _ZN6Client8ll_flushEP2Fh@Base 0.87
 _ZN6Client8ll_fsyncEP2Fhb@Base 0.87
 _ZN6Client8ll_getlkEP2FhP5flockm@Base 0.87
 _ZN6Client8ll_lseekEP2Fhli@Base 0.87
 _ZN6Client8ll_mkdirEP5InodePKcjP4statPS1_ii@Base 0.87
 _ZN6Client8ll_mknodEP5InodePKcjmP4statPS1_ii@Base 0.87
 _ZN6Client8ll_rmdirEP5InodePKcii@Base 0.87
 _ZN6Client8ll_setlkEP2FhP5flockmi@Base 0.87
 _ZN6Client8ll_writeEP2FhllPKc@Base 0.87
 _ZN6Client8may_openEP5Inodeiii@Base 0.87
 _ZN6Client8readlinkEPKcPcl@Base 0.87
 _ZN6Client8send_capEP5InodeP11MetaSessionP3Capiiiim@Base 0.87
 _ZN6Client8setxattrEPKcS1_PKvmi@Base 0.87
 _ZN6Client8shutdownEv@Base 0.87
 _ZN6Client8touch_dnEP6Dentry@Base 0.87
 _ZN6Client8truncateEPKcl@Base 0.87
 _ZN6Client9_closedirEP12dir_result_t@Base 0.87
 _ZN6Client9_get_vinoEP5Inode@Base 0.87
 _ZN6Client9_getdentsEP12dir_result_tPcib@Base 0.87
 _ZN6Client9_getxattrEP5InodePKcPvmii@Base 0.87
 _ZN6Client9_getxattrERN5boost13intrusive_ptrI5InodeEEPKcPvm@Base 0.87
 _ZN6Client9_readlinkEP5InodePcm@Base 0.87
 _ZN6Client9_setxattrEP5InodePKcPKvmiii@Base 0.87
 _ZN6Client9_setxattrERN5boost13intrusive_ptrI5InodeEEPKcPKvmi@Base 0.87
 _ZN6Client9close_dirEP3Dir@Base 0.87
 _ZN6Client9fallocateEiill@Base 0.87
 _ZN6Client9fgetxattrEiPKcPvm@Base 0.87
 _ZN6Client9fill_statEP5InodeP4statP11frag_info_tP11nest_info_t@Base 0.87
 _ZN6Client9fsetxattrEiPKcPKvmi@Base 0.87
 _ZN6Client9ftruncateEil@Base 0.87
 _ZN6Client9lgetxattrEPKcS1_Pvm@Base 0.87
 _ZN6Client9listxattrEPKcPcm@Base 0.87
 _ZN6Client9ll_createEP5InodePKcjiP4statPS1_PP2Fhii@Base 0.87
 _ZN6Client9ll_forgetEP5Inodei@Base 0.87
 _ZN6Client9ll_lookupEP5InodePKcP4statPS1_ii@Base 0.87
 _ZN6Client9ll_renameEP5InodePKcS1_S3_ii@Base 0.87
 _ZN6Client9ll_statfsEP5InodeP7statvfs@Base 0.87
 _ZN6Client9ll_unlinkEP5InodePKcii@Base 0.87
 _ZN6Client9lsetxattrEPKcS1_PKvmi@Base 0.87
 _ZN6Client9path_walkERK8filepathPN5boost13intrusive_ptrI5InodeEEbii@Base 0.87
 _ZN6Client9put_inodeEP5Inodei@Base 0.87
 _ZN6Client9readdir_rEP12dir_result_tP6dirent@Base 0.87
 _ZN6Client9rewinddirEP12dir_result_t@Base 0.87
 _ZN6Client9trim_capsEP11MetaSessioni@Base 0.87
 _ZN6ClientC1EP9MessengerP9MonClient@Base 0.87
 _ZN6ClientC2EP9MessengerP9MonClient@Base 0.87
 _ZN6ClientD0Ev@Base 0.87
 _ZN6ClientD1Ev@Base 0.87
 _ZN6ClientD2Ev@Base 0.87
 _ZN6Dentry3getEv@Base 0.87
 _ZN6Dentry3putEv@Base 0.87
 _ZN6HitSet6ParamsD0Ev@Base 0.87
 _ZN6HitSet6ParamsD1Ev@Base 0.87
 _ZN6HitSet6ParamsD2Ev@Base 0.87
 _ZN6MDSMap10mds_info_tC1ERKS0_@Base 0.87
 _ZN6MDSMap10mds_info_tC2ERKS0_@Base 0.87
 _ZN6MDSMap10mds_info_tD1Ev@Base 0.87
 _ZN6MDSMap10mds_info_tD2Ev@Base 0.87
 _ZN6MDSMap8get_instEi@Base 0.87
 _ZN6MDSMapD1Ev@Base 0.87
 _ZN6MDSMapD2Ev@Base 0.87
 _ZN6MOSDOp13clear_buffersEv@Base 0.87
 _ZN6MOSDOp14decode_payloadEv@Base 0.87
 _ZN6MOSDOp14encode_payloadEm@Base 0.87
 _ZN6MOSDOpD0Ev@Base 0.87
 _ZN6MOSDOpD1Ev@Base 0.87
 _ZN6MOSDOpD2Ev@Base 0.87
 _ZN6OSDMap11IncrementalD1Ev@Base 0.87
 _ZN6OSDMap11IncrementalD2Ev@Base 0.87
 _ZN6OSDMap17deepish_copy_fromERKS_@Base 0.87
 _ZN6OSDMap22file_to_object_locatorERK13file_layout_t@Base 0.87
 _ZN6OSDMap7addrs_sD1Ev@Base 0.87
 _ZN6OSDMap7addrs_sD2Ev@Base 0.87
 _ZN6OSDMapC1Ev@Base 0.87
 _ZN6OSDMapC2Ev@Base 0.87
 _ZN6OSDMapD1Ev@Base 0.87
 _ZN6OSDMapD2Ev@Base 0.87
 _ZN7Context8completeEi@Base 0.87
 _ZN7LRUList6removeEP9LRUObject@Base 0.87
 _ZN7MPoolOp14decode_payloadEv@Base 0.87
 _ZN7MPoolOp14encode_payloadEm@Base 0.87
 _ZN7MPoolOpD0Ev@Base 0.87
 _ZN7MPoolOpD1Ev@Base 0.87
 _ZN7MPoolOpD2Ev@Base 0.87
 _ZN7MStatfs14decode_payloadEv@Base 0.87
 _ZN7MStatfs14encode_payloadEm@Base 0.87
 _ZN7MStatfsD0Ev@Base 0.87
 _ZN7MStatfsD1Ev@Base 0.87
 _ZN7MStatfsD2Ev@Base 0.87
 _ZN7Message13clear_buffersEv@Base 0.87
 _ZN7MessageC1Eiii@Base 0.87
 _ZN7MessageC2Eiii@Base 0.87
 _ZN7MessageD0Ev@Base 0.87
 _ZN7MessageD1Ev@Base 0.87
 _ZN7MessageD2Ev@Base 0.87
 _ZN7Striper14extent_to_fileEP11CephContextP13file_layout_tmmmRSt6vectorISt4pairImmESaIS6_EE@Base 0.87
 _ZN7Striper15file_to_extentsEP11CephContextPKcPK13file_layout_tmmmRSt3mapI8object_tSt6vectorI12ObjectExtentSaISA_EESt4lessIS8_ESaISt4pairIKS8_SC_EEEm@Base 0.87
 _ZN7Striper15file_to_extentsEP11CephContextPKcPK13file_layout_tmmmRSt6vectorI12ObjectExtentSaIS8_EEm@Base 0.87
 _ZN7Striper15get_num_objectsERK13file_layout_tm@Base 0.87
 _ZN7Striper17StripedReadResult15assemble_resultEP11CephContextPcm@Base 0.87
 _ZN7Striper17StripedReadResult15assemble_resultEP11CephContextRN4ceph6buffer4listEb@Base 0.87
 _ZN7Striper17StripedReadResult18add_partial_resultEP11CephContextRN4ceph6buffer4listERKSt6vectorISt4pairImmESaIS9_EE@Base 0.87
 _ZN7Striper17StripedReadResult25add_partial_sparse_resultEP11CephContextRN4ceph6buffer4listERKSt3mapImmSt4lessImESaISt4pairIKmmEEEmRKSt6vectorISA_ImmESaISI_EE@Base 0.87
 _ZN7Striper18assimilate_extentsERSt3mapI8object_tSt6vectorI12ObjectExtentSaIS3_EESt4lessIS1_ESaISt4pairIKS1_S5_EEERS5_@Base 0.87
 _ZN7Striper20object_truncate_sizeEP11CephContextPK13file_layout_tmm@Base 0.87
 _ZN8C_C_Tick6finishEi@Base 0.87
 _ZN8C_C_TickD0Ev@Base 0.87
 _ZN8C_C_TickD1Ev@Base 0.87
 _ZN8C_C_TickD2Ev@Base 0.87
 _ZN8Finisher14FinisherThread5entryEv@Base 0.87
 _ZN8Finisher14FinisherThreadD0Ev@Base 0.87
 _ZN8Finisher14FinisherThreadD1Ev@Base 0.87
 _ZN8Finisher14FinisherThreadD2Ev@Base 0.87
 _ZN8Finisher5queueEP7Contexti@Base 0.87
 _ZN8FinisherC1EP11CephContext@Base 0.87
 _ZN8FinisherC2EP11CephContext@Base 0.87
 _ZN8FinisherD1Ev@Base 0.87
 _ZN8FinisherD2Ev@Base 0.87
 _ZN8MCommand14decode_payloadEv@Base 0.87
 _ZN8MCommand14encode_payloadEm@Base 0.87
 _ZN8MCommandD0Ev@Base 0.87
 _ZN8MCommandD1Ev@Base 0.87
 _ZN8MCommandD2Ev@Base 0.87
 _ZN8Objecter10OSDSession8get_lockER8object_t@Base 0.87
 _ZN8Objecter10OSDSessionD0Ev@Base 0.87
 _ZN8Objecter10OSDSessionD1Ev@Base 0.87
 _ZN8Objecter10OSDSessionD2Ev@Base 0.87
 _ZN8Objecter10_finish_opEPNS_2OpEi@Base 0.87
 _ZN8Objecter10_op_cancelEmi@Base 0.87
 _ZN8Objecter10_op_submitEPNS_2OpERN4ceph13shunique_lockIN5boost12shared_mutexEEEPm@Base 0.87
 _ZN8Objecter10start_tickEv@Base 0.87
 _ZN8Objecter11_list_replyEPNS_11ListContextEiP7Contextj@Base 0.87
 _ZN8Objecter11create_poolERNSt7__cxx1112basic_stringIcSt11char_traitsIcESaIcEEEP7Contextmi@Base 0.87
 _ZN8Objecter11delete_poolERKNSt7__cxx1112basic_stringIcSt11char_traitsIcESaIcEEEP7Context@Base 0.87
 _ZN8Objecter11delete_poolElP7Context@Base 0.87
 _ZN8Objecter11dump_activeEv@Base 0.87
 _ZN8Objecter11get_sessionEPNS_10OSDSessionE@Base 0.87
 _ZN8Objecter11ms_dispatchEP7Message@Base 0.87
 _ZN8Objecter11op_target_tD1Ev@Base 0.87
 _ZN8Objecter11op_target_tD2Ev@Base 0.87
 _ZN8Objecter11put_sessionEPNS_10OSDSessionE@Base 0.87
 _ZN8Objecter11write_truncERK8object_tRK16object_locator_tmmRK11SnapContextRKN4ceph6buffer4listENSt6chrono10time_pointINS9_11time_detail10real_clockENSE_8durationImSt5ratioILl1ELl1000000000EEEEEEimjP7ContextSO_PmP15ObjectOperationi@Base 0.87
 _ZN8Objecter12_calc_targetEPNS_11op_target_tEPjb@Base 0.87
 _ZN8Objecter12_dump_activeEPNS_10OSDSessionE@Base 0.87
 _ZN8Objecter12_dump_activeEv@Base 0.87
 _ZN8Objecter12_get_sessionEiPPNS_10OSDSessionERN4ceph13shunique_lockIN5boost12shared_mutexEEE@Base 0.87
 _ZN8Objecter12_linger_pingEPNS_8LingerOpEiNSt6chrono10time_pointIN4ceph11time_detail10mono_clockENS2_8durationImSt5ratioILl1ELl1000000000EEEEEEj@Base 0.87
 _ZN8Objecter12_map_sessionEPNS_11op_target_tEPPNS_10OSDSessionERN4ceph13shunique_lockIN5boost12shared_mutexEEE@Base 0.87
 _ZN8Objecter12_nlist_replyEPNS_12NListContextEiP7Contextj@Base 0.87
 _ZN8Objecter12_send_lingerEPNS_8LingerOpERN4ceph13shunique_lockIN5boost12shared_mutexEEE@Base 0.87
 _ZN8Objecter12_throttle_opEPNS_2OpERN4ceph13shunique_lockIN5boost12shared_mutexEEEi@Base 0.87
 _ZN8Objecter12get_fs_statsER11ceph_statfsP7Context@Base 0.87
 _ZN8Objecter12linger_checkEPNS_8LingerOpE@Base 0.87
 _ZN8Objecter12linger_watchEPNS_8LingerOpER15ObjectOperationRK11SnapContextNSt6chrono10time_pointIN4ceph11time_detail10real_clockENS7_8durationImSt5ratioILl1ELl1000000000EEEEEERNS9_6buffer4listEP7ContextPm@Base 0.87
 _ZN8Objecter12list_objectsEPNS_11ListContextEP7Context@Base 0.87
 _ZN8Objecter12wait_for_mapEjP7Contexti@Base 0.87
 _ZN8Objecter13C_Linger_Ping6finishEi@Base 0.87
 _ZN8Objecter13C_Linger_PingD0Ev@Base 0.87
 _ZN8Objecter13C_Linger_PingD1Ev@Base 0.87
 _ZN8Objecter13C_Linger_PingD2Ev@Base 0.87
 _ZN8Objecter13_send_commandEPNS_9CommandOpE@Base 0.87
 _ZN8Objecter13close_sessionEPNS_10OSDSessionE@Base 0.87
 _ZN8Objecter13dump_requestsEPN4ceph9FormatterE@Base 0.87
 _ZN8Objecter13is_pg_changedEiRKSt6vectorIiSaIiEEiS4_b@Base 0.87
 _ZN8Objecter13kick_requestsEPNS_10OSDSessionE@Base 0.87
 _ZN8Objecter13linger_cancelEPNS_8LingerOpE@Base 0.87
 _ZN8Objecter13linger_notifyEPNS_8LingerOpER15ObjectOperation8snapid_tRN4ceph6buffer4listEPS7_P7ContextPm@Base 0.87
 _ZN8Objecter13list_nobjectsEPNS_12NListContextEP7Context@Base 0.87
 _ZN8Objecter14_kick_requestsEPNS_10OSDSessionERSt3mapImPNS_8LingerOpESt4lessImESaISt4pairIKmS4_EEE@Base 0.87
 _ZN8Objecter14_linger_cancelEPNS_8LingerOpE@Base 0.87
 _ZN8Objecter14_linger_commitEPNS_8LingerOpEiRN4ceph6buffer4listE@Base 0.87
 _ZN8Objecter14_linger_submitEPNS_8LingerOpERN4ceph13shunique_lockIN5boost12shared_mutexEEE@Base 0.87
 _ZN8Objecter14_scan_requestsEPNS_10OSDSessionEbbPSt3mapIlbSt4lessIlESaISt4pairIKlbEEERS2_ImPNS_2OpES3_ImESaIS5_IKmSC_EEERNSt7__cxx114listIPNS_8LingerOpESaISM_EEERS2_ImPNS_9CommandOpESD_SaIS5_ISE_SR_EEERN4ceph13shunique_lockIN5boost12shared_mutexEEE@Base 0.87
 _ZN8Objecter14blacklist_selfEb@Base 0.87
 _ZN8Objecter14calc_op_budgetEPNS_2OpE@Base 0.87
 _ZN8Objecter14get_pool_statsERNSt7__cxx114listINS0_12basic_stringIcSt11char_traitsIcESaIcEEESaIS6_EEEPSt3mapIS6_11pool_stat_tSt4lessIS6_ESaISt4pairIKS6_SB_EEEP7Context@Base 0.87
 _ZN8Objecter14handle_osd_mapEP7MOSDMap@Base 0.87
 _ZN8Objecter14pool_op_cancelEmi@Base 0.87
 _ZN8Objecter14pool_op_submitEPNS_6PoolOpE@Base 0.87
 _ZN8Objecter14pool_snap_listElPSt6vectorImSaImEE@Base 0.87
 _ZN8Objecter14resend_mon_opsEv@Base 0.87
 _ZN8Objecter14sg_write_truncERSt6vectorI12ObjectExtentSaIS1_EERK11SnapContextRKN4ceph6buffer4listENSt6chrono10time_pointINS8_11time_detail10real_clockENSD_8durationImSt5ratioILl1ELl1000000000EEEEEEimjP7ContextSN_i@Base 0.87
 _ZN8Objecter14submit_commandEPNS_9CommandOpEPm@Base 0.87
 _ZN8Objecter15C_Linger_Commit6finishEi@Base 0.87
 _ZN8Objecter15C_Linger_CommitD0Ev@Base 0.87
 _ZN8Objecter15C_Linger_CommitD1Ev@Base 0.87
 _ZN8Objecter15C_Linger_CommitD2Ev@Base 0.87
 _ZN8Objecter15C_Op_Map_Latest6finishEi@Base 0.87
 _ZN8Objecter15C_Op_Map_LatestD0Ev@Base 0.87
 _ZN8Objecter15C_Op_Map_LatestD1Ev@Base 0.87
 _ZN8Objecter15C_Op_Map_LatestD2Ev@Base 0.87
 _ZN8Objecter15_do_delete_poolElP7Context@Base 0.87
 _ZN8Objecter15_finish_commandEPNS_9CommandOpEiNSt7__cxx1112basic_stringIcSt11char_traitsIcESaIcEEE@Base 0.87
 _ZN8Objecter15_finish_pool_opEPNS_6PoolOpEi@Base 0.87
 _ZN8Objecter15_pool_op_submitEPNS_6PoolOpE@Base 0.87
 _ZN8Objecter15_prepare_osd_opEPNS_2OpE@Base 0.87
 _ZN8Objecter15_reopen_sessionEPNS_10OSDSessionE@Base 0.87
 _ZN8Objecter15_sg_read_finishERSt6vectorI12ObjectExtentSaIS1_EERS0_IN4ceph6buffer4listESaIS7_EEPS7_P7Context@Base 0.87
 _ZN8Objecter15dump_linger_opsEPN4ceph9FormatterE@Base 0.87
 _ZN8Objecter15linger_registerERK8object_tRK16object_locator_ti@Base 0.87
 _ZN8Objecter15ms_handle_resetEP10Connection@Base 0.87
 _ZN8Objecter16RequestStateHook4callENSt7__cxx1112basic_stringIcSt11char_traitsIcESaIcEEERSt3mapIS6_N5boost7variantIS6_JbldSt6vectorIS6_SaIS6_EEEEESt4lessIS6_ESaISt4pairIKS6_SD_EEES6_RN4ceph6buffer4listE@Base 0.87
 _ZN8Objecter16RequestStateHookC1EPS_@Base 0.87
 _ZN8Objecter16RequestStateHookC2EPS_@Base 0.87
 _ZN8Objecter16RequestStateHookD0Ev@Base 0.87
 _ZN8Objecter16RequestStateHookD1Ev@Base 0.87
 _ZN8Objecter16RequestStateHookD2Ev@Base 0.87
 _ZN8Objecter16_do_watch_notifyEPNS_8LingerOpEP12MWatchNotify@Base 0.87
 _ZN8Objecter16_dump_linger_opsEPKNS_10OSDSessionEPN4ceph9FormatterE@Base 0.87
 _ZN8Objecter16_enumerate_replyERN4ceph6buffer4listEiRK9hobject_tlijPNSt7__cxx114listIN8librados14ListObjectImplESaISA_EEEPS4_P7Context@Base 0.87
 _ZN8Objecter16_fs_stats_submitEPNS_8StatfsOpE@Base 0.87
 _ZN8Objecter16_poolstat_submitEPNS_10PoolStatOpE@Base 0.87
 _ZN8Objecter16_send_op_accountEPNS_2OpE@Base 0.87
 _ZN8Objecter16change_pool_auidElP7Contextm@Base 0.87
 _ZN8Objecter16create_pool_snapElRNSt7__cxx1112basic_stringIcSt11char_traitsIcESaIcEEEP7Context@Base 0.87
 _ZN8Objecter16delete_pool_snapElRNSt7__cxx1112basic_stringIcSt11char_traitsIcESaIcEEEP7Context@Base 0.87
 _ZN8Objecter16dump_command_opsEPN4ceph9FormatterE@Base 0.87
 _ZN8Objecter16ms_fast_dispatchEP7Message@Base 0.87
 _ZN8Objecter16op_cancel_writesEil@Base 0.87
 _ZN8Objecter16statfs_op_cancelEmi@Base 0.87
 _ZN8Objecter16wait_for_osd_mapEv@Base 0.87
 _ZN8Objecter17_cancel_linger_opEPNS_2OpE@Base 0.87
 _ZN8Objecter17_dump_command_opsEPKNS_10OSDSessionEPN4ceph9FormatterE@Base 0.87
 _ZN8Objecter17_finish_statfs_opEPNS_8StatfsOpEi@Base 0.87
 _ZN8Objecter17_linger_reconnectEPNS_8LingerOpEi@Base 0.87
 _ZN8Objecter17_send_linger_pingEPNS_8LingerOpE@Base 0.87
 _ZN8Objecter17_wait_for_new_mapEP7Contextji@Base 0.87
 _ZN8Objecter17command_op_cancelEPNS_10OSDSessionEmi@Base 0.87
 _ZN8Objecter17enumerate_objectsElRKNSt7__cxx1112basic_stringIcSt11char_traitsIcESaIcEEERK9hobject_tSA_jRKN4ceph6buffer4listEPNS0_4listIN8librados14ListObjectImplESaISI_EEEPS8_P7Context@Base 0.87
 _ZN8Objecter17list_objects_seekEPNS_11ListContextEj@Base 0.87
 _ZN8Objecter17maybe_request_mapEv@Base 0.87
 _ZN8Objecter17ms_get_authorizerEiPP14AuthAuthorizerb@Base 0.87
 _ZN8Objecter17ms_handle_connectEP10Connection@Base 0.87
 _ZN8Objecter17pool_snap_by_nameElPKcP8snapid_t@Base 0.87
 _ZN8Objecter17set_epoch_barrierEj@Base 0.87
 _ZN8Objecter18C_Linger_Reconnect6finishEi@Base 0.87
 _ZN8Objecter18C_Linger_ReconnectD0Ev@Base 0.87
 _ZN8Objecter18C_Linger_ReconnectD1Ev@Base 0.87
 _ZN8Objecter18C_Linger_ReconnectD2Ev@Base 0.87
 _ZN8Objecter18_check_op_pool_dneEPNS_2OpERSt11unique_lockIN5boost12shared_mutexEE@Base 0.87
 _ZN8Objecter18_linger_ops_resendERSt3mapImPNS_8LingerOpESt4lessImESaISt4pairIKmS2_EEERSt11unique_lockIN5boost12shared_mutexEE@Base 0.87
 _ZN8Objecter18_maybe_request_mapEv@Base 0.87
 _ZN8Objecter18_send_op_map_checkEPNS_2OpE@Base 0.87
 _ZN8Objecter18_session_op_assignEPNS_10OSDSessionEPNS_2OpE@Base 0.87
 _ZN8Objecter18_session_op_removeEPNS_10OSDSessionEPNS_2OpE@Base 0.87
 _ZN8Objecter18get_latest_versionEjjP7Context@Base 0.87
 _ZN8Objecter18handle_conf_changeEPK11md_config_tRKSt3setINSt7__cxx1112basic_stringIcSt11char_traitsIcESaIcEEESt4lessIS9_ESaIS9_EE@Base 0.87
 _ZN8Objecter18list_nobjects_seekEPNS_12NListContextEj@Base 0.87
 _ZN8Objecter18pool_snap_get_infoEl8snapid_tP16pool_snap_info_t@Base 0.87
 _ZN8Objecter19C_Linger_Map_Latest6finishEi@Base 0.87
 _ZN8Objecter19C_Linger_Map_LatestD0Ev@Base 0.87
 _ZN8Objecter19C_Linger_Map_LatestD1Ev@Base 0.87
 _ZN8Objecter19C_Linger_Map_LatestD2Ev@Base 0.87
 _ZN8Objecter19_get_latest_versionEjjP7Context@Base 0.87
 _ZN8Objecter19handle_osd_op_replyEP11MOSDOpReply@Base 0.87
 _ZN8Objecter19handle_watch_notifyEP12MWatchNotify@Base 0.87
 _ZN8Objecter19pool_stat_op_cancelEmi@Base 0.87
 _ZN8Objecter20C_Command_Map_Latest6finishEi@Base 0.87
 _ZN8Objecter20C_Command_Map_LatestD0Ev@Base 0.87
 _ZN8Objecter20C_Command_Map_LatestD1Ev@Base 0.87
 _ZN8Objecter20C_Command_Map_LatestD2Ev@Base 0.87
 _ZN8Objecter20_calc_command_targetEPNS_9CommandOpERN4ceph13shunique_lockIN5boost12shared_mutexEEE@Base 0.87
 _ZN8Objecter20_finish_pool_stat_opEPNS_10PoolStatOpEi@Base 0.87
 _ZN8Objecter20_op_cancel_map_checkEPNS_2OpE@Base 0.87
 _ZN8Objecter20handle_command_replyEP13MCommandReply@Base 0.87
 _ZN8Objecter20handle_pool_op_replyEP12MPoolOpReply@Base 0.87
 _ZN8Objecter20update_pool_full_mapERSt3mapIlbSt4lessIlESaISt4pairIKlbEEE@Base 0.87
 _ZN8Objecter21enumerate_objects_endEv@Base 0.87
 _ZN8Objecter21handle_fs_stats_replyEP12MStatfsReply@Base 0.87
 _ZN8Objecter21update_crush_locationEv@Base 0.87
 _ZN8Objecter22_check_command_map_dneEPNS_9CommandOpE@Base 0.87
 _ZN8Objecter22_check_linger_pool_dneEPNS_8LingerOpEPb@Base 0.87
 _ZN8Objecter22_normalize_watch_errorEi@Base 0.87
 _ZN8Objecter22_op_submit_with_budgetEPNS_2OpERN4ceph13shunique_lockIN5boost12shared_mutexEEEPmPi@Base 0.87
 _ZN8Objecter22_send_linger_map_checkEPNS_8LingerOpE@Base 0.87
 _ZN8Objecter22ms_handle_remote_resetEP10Connection@Base 0.87
 _ZN8Objecter22wait_for_latest_osdmapEP7Context@Base 0.87
 _ZN8Objecter23_assign_command_sessionEPNS_9CommandOpERN4ceph13shunique_lockIN5boost12shared_mutexEEE@Base 0.87
 _ZN8Objecter23_send_command_map_checkEPNS_9CommandOpE@Base 0.87
 _ZN8Objecter23delete_selfmanaged_snapEl8snapid_tP7Context@Base 0.87
 _ZN8Objecter23enumerate_objects_beginEv@Base 0.87
 _ZN8Objecter23put_list_context_budgetEPNS_11ListContextE@Base 0.87
 _ZN8Objecter23target_should_be_pausedEPNS_11op_target_tE@Base 0.87
 _ZN8Objecter24_linger_cancel_map_checkEPNS_8LingerOpE@Base 0.87
 _ZN8Objecter24_recalc_linger_op_targetEPNS_8LingerOpERN4ceph13shunique_lockIN5boost12shared_mutexEEE@Base 0.87
 _ZN8Objecter24get_object_hash_positionElRKNSt7__cxx1112basic_stringIcSt11char_traitsIcESaIcEEES7_@Base 0.87
 _ZN8Objecter24put_nlist_context_budgetEPNS_12NListContextE@Base 0.87
 _ZN8Objecter25_command_cancel_map_checkEPNS_9CommandOpE@Base 0.87
 _ZN8Objecter25_session_linger_op_assignEPNS_10OSDSessionEPNS_8LingerOpE@Base 0.87
 _ZN8Objecter25_session_linger_op_removeEPNS_10OSDSessionEPNS_8LingerOpE@Base 0.87
 _ZN8Objecter25allocate_selfmanaged_snapElP8snapid_tP7Context@Base 0.87
 _ZN8Objecter26_session_command_op_assignEPNS_10OSDSessionEPNS_9CommandOpE@Base 0.87
 _ZN8Objecter26_session_command_op_removeEPNS_10OSDSessionEPNS_9CommandOpE@Base 0.87
 _ZN8Objecter27get_object_pg_hash_positionElRKNSt7__cxx1112basic_stringIcSt11char_traitsIcESaIcEEES7_@Base 0.87
 _ZN8Objecter27handle_get_pool_stats_replyEP18MGetPoolStatsReply@Base 0.87
 _ZN8Objecter2OpC1ERK8object_tRK16object_locator_tRSt6vectorI5OSDOpSaIS8_EEiP7ContextSD_PmPi@Base 0.87
 _ZN8Objecter2OpC2ERK8object_tRK16object_locator_tRSt6vectorI5OSDOpSaIS8_EEiP7ContextSD_PmPi@Base 0.87
 _ZN8Objecter2OpD0Ev@Base 0.87
 _ZN8Objecter2OpD1Ev@Base 0.87
 _ZN8Objecter2OpD2Ev@Base 0.87
 _ZN8Objecter4initEv@Base 0.87
 _ZN8Objecter4tickEv@Base 0.87
 _ZN8Objecter4zeroERK8object_tRK16object_locator_tmmRK11SnapContextNSt6chrono10time_pointIN4ceph11time_detail10real_clockENS9_8durationImSt5ratioILl1ELl1000000000EEEEEEiP7ContextSK_PmP15ObjectOperation@Base 0.87
 _ZN8Objecter5startEPK6OSDMap@Base 0.87
 _ZN8Objecter6C_List6finishEi@Base 0.87
 _ZN8Objecter6C_ListD0Ev@Base 0.87
 _ZN8Objecter6C_ListD1Ev@Base 0.87
 _ZN8Objecter6C_ListD2Ev@Base 0.87
 _ZN8Objecter6C_Stat6finishEi@Base 0.87
 _ZN8Objecter6C_StatD0Ev@Base 0.87
 _ZN8Objecter6C_StatD1Ev@Base 0.87
 _ZN8Objecter6C_StatD2Ev@Base 0.87
 _ZN8Objecter6mutateERK8object_tRK16object_locator_tR15ObjectOperationRK11SnapContextNSt6chrono10time_pointIN4ceph11time_detail10real_clockENSB_8durationImSt5ratioILl1ELl1000000000EEEEEEiP7ContextSM_Pm11osd_reqid_t@Base 0.87
 _ZN8Objecter7C_NList6finishEi@Base 0.87
 _ZN8Objecter7C_NListD0Ev@Base 0.87
 _ZN8Objecter7C_NListD1Ev@Base 0.87
 _ZN8Objecter7C_NListD2Ev@Base 0.87
 _ZN8Objecter7pg_readEj16object_locator_tR15ObjectOperationPN4ceph6buffer4listEiP7ContextPjPi@Base 0.87
 _ZN8Objecter8C_SGRead6finishEi@Base 0.87
 _ZN8Objecter8C_SGReadD0Ev@Base 0.87
 _ZN8Objecter8C_SGReadD1Ev@Base 0.87
 _ZN8Objecter8C_SGReadD2Ev@Base 0.87
 _ZN8Objecter8LingerOp13_queued_asyncEv@Base 0.87
 _ZN8Objecter8LingerOpD0Ev@Base 0.87
 _ZN8Objecter8LingerOpD1Ev@Base 0.87
 _ZN8Objecter8LingerOpD2Ev@Base 0.87
 _ZN8Objecter8_send_opEPNS_2OpEP6MOSDOp@Base 0.87
 _ZN8Objecter8dump_opsEPN4ceph9FormatterE@Base 0.87
 _ZN8Objecter8have_mapEj@Base 0.87
 _ZN8Objecter8shutdownEv@Base 0.87
 _ZN8Objecter9_dump_opsEPKNS_10OSDSessionEPN4ceph9FormatterE@Base 0.87
 _ZN8Objecter9finish_opEPNS_10OSDSessionEm@Base 0.87
 _ZN8Objecter9op_cancelEPNS_10OSDSessionEmi@Base 0.87
 _ZN8Objecter9op_cancelEmi@Base 0.87
 _ZN8Objecter9op_submitEPNS_2OpEPmPi@Base 0.87
 _ZN8ObjecterD0Ev@Base 0.87
 _ZN8ObjecterD1Ev@Base 0.87
 _ZN8ObjecterD2Ev@Base 0.87
 _ZN8filepath10pop_dentryEv@Base 0.87
 _ZN8filepath11push_dentryEPKc@Base 0.87
 _ZN8filepath11push_dentryERKNSt7__cxx1112basic_stringIcSt11char_traitsIcESaIcEEE@Base 0.87
 _ZN8filepathC1EPKc@Base 0.87
 _ZN8filepathC2EPKc@Base 0.87
 _ZN8filepathD1Ev@Base 0.87
 _ZN8filepathD2Ev@Base 0.87
 _ZN8filepathaSERKS_@Base 0.87
 _ZN8librados11object_id_tC1ERKS0_@Base 0.87
 _ZN8librados11object_id_tC2ERKS0_@Base 0.87
 _ZN8librados11object_id_tD1Ev@Base 0.87
 _ZN8librados11object_id_tD2Ev@Base 0.87
 _ZN8librados22inconsistent_snapset_tD1Ev@Base 0.87
 _ZN8librados22inconsistent_snapset_tD2Ev@Base 0.87
 _ZN9InodeStat6decodeERN4ceph6buffer4list8iteratorEm@Base 0.87
 _ZN9InodeStatD1Ev@Base 0.87
 _ZN9InodeStatD2Ev@Base 0.87
 _ZN9Journaler10C_ProbeEnd6finishEi@Base 0.87
 _ZN9Journaler10C_ProbeEndD0Ev@Base 0.87
 _ZN9Journaler10C_ProbeEndD1Ev@Base 0.87
 _ZN9Journaler10C_ProbeEndD2Ev@Base 0.87
 _ZN9Journaler10C_ReadHead6finishEi@Base 0.87
 _ZN9Journaler10C_ReadHeadD0Ev@Base 0.87
 _ZN9Journaler10C_ReadHeadD1Ev@Base 0.87
 _ZN9Journaler10C_ReadHeadD2Ev@Base 0.87
 _ZN9Journaler10_read_headEP7ContextPN4ceph6buffer4listE@Base 0.87
 _ZN9Journaler10set_layoutEPK13file_layout_t@Base 0.87
 _ZN9Journaler10write_headEP7Context@Base 0.87
 _ZN9Journaler11C_RetryRead6finishEi@Base 0.87
 _ZN9Journaler11C_RetryReadD0Ev@Base 0.87
 _ZN9Journaler11C_RetryReadD1Ev@Base 0.87
 _ZN9Journaler11C_RetryReadD2Ev@Base 0.87
 _ZN9Journaler11C_WriteHead6finishEi@Base 0.87
 _ZN9Journaler11C_WriteHeadD0Ev@Base 0.87
 _ZN9Journaler11C_WriteHeadD1Ev@Base 0.87
 _ZN9Journaler11C_WriteHeadD2Ev@Base 0.87
 _ZN9Journaler11_issue_readEm@Base 0.87
 _ZN9Journaler11_set_layoutEPK13file_layout_t@Base 0.87
 _ZN9Journaler11_write_headEP7Context@Base 0.87
 _ZN9Journaler11is_readableEv@Base 0.87
 _ZN9Journaler11reread_headEP7Context@Base 0.87
 _ZN9Journaler12C_DelayFlush6finishEi@Base 0.87
 _ZN9Journaler12C_DelayFlushD0Ev@Base 0.87
 _ZN9Journaler12C_DelayFlushD1Ev@Base 0.87
 _ZN9Journaler12C_DelayFlushD2Ev@Base 0.87
 _ZN9Journaler12C_RereadHead6finishEi@Base 0.87
 _ZN9Journaler12C_RereadHeadD0Ev@Base 0.87
 _ZN9Journaler12C_RereadHeadD1Ev@Base 0.87
 _ZN9Journaler12C_RereadHeadD2Ev@Base 0.87
 _ZN9Journaler12_finish_readEimmRN4ceph6buffer4listE@Base 0.87
 _ZN9Journaler12_finish_trimEim@Base 0.87
 _ZN9Journaler12_is_readableEv@Base 0.87
 _ZN9Journaler12_reread_headEP7Context@Base 0.87
 _ZN9Journaler12append_entryERN4ceph6buffer4listE@Base 0.87
 _ZN9Journaler12init_headersERNS_6HeaderE@Base 0.87
 _ZN9Journaler12set_readonlyEv@Base 0.87
 _ZN9Journaler13C_EraseFinish6finishEi@Base 0.87
 _ZN9Journaler13C_EraseFinishD0Ev@Base 0.87
 _ZN9Journaler13C_EraseFinishD1Ev@Base 0.87
 _ZN9Journaler13C_EraseFinishD2Ev@Base 0.87
 _ZN9Journaler13_finish_eraseEiP12C_OnFinisher@Base 0.87
 _ZN9Journaler13_finish_flushEimNSt6chrono10time_pointIN4ceph11time_detail10real_clockENS0_8durationImSt5ratioILl1ELl1000000000EEEEEE@Base 0.87
 _ZN9Journaler13set_writeableEv@Base 0.87
 _ZN9Journaler13wrap_finisherEP7Context@Base 0.87
 _ZN9Journaler14_issue_prezeroEv@Base 0.87
 _ZN9Journaler14try_read_entryERN4ceph6buffer4listE@Base 0.87
 _ZN9Journaler14wait_for_flushEP7Context@Base 0.87
 _ZN9Journaler15_finish_prezeroEimm@Base 0.87
 _ZN9Journaler15_finish_reprobeEimP12C_OnFinisher@Base 0.87
 _ZN9Journaler15_wait_for_flushEP7Context@Base 0.87
 _ZN9Journaler17C_RereadHeadProbe6finishEi@Base 0.87
 _ZN9Journaler17C_RereadHeadProbeD0Ev@Base 0.87
 _ZN9Journaler17C_RereadHeadProbeD1Ev@Base 0.87
 _ZN9Journaler17C_RereadHeadProbeD2Ev@Base 0.87
 _ZN9Journaler17_finish_probe_endEim@Base 0.87
 _ZN9Journaler17_finish_read_headEiRN4ceph6buffer4listE@Base 0.87
 _ZN9Journaler17wait_for_readableEP7Context@Base 0.87
 _ZN9Journaler18_finish_write_headEiRNS_6HeaderEP12C_OnFinisher@Base 0.87
 _ZN9Journaler18handle_write_errorEi@Base 0.87
 _ZN9Journaler19_finish_reread_headEiRN4ceph6buffer4listEP7Context@Base 0.87
 _ZN9Journaler20_assimilate_prefetchEv@Base 0.87
 _ZN9Journaler21reread_head_and_probeEP7Context@Base 0.87
 _ZN9Journaler23set_write_error_handlerEP7Context@Base 0.87
 _ZN9Journaler29_finish_reread_head_and_probeEiP12C_OnFinisher@Base 0.87
 _ZN9Journaler4trimEv@Base 0.87
 _ZN9Journaler5_trimEv@Base 0.87
 _ZN9Journaler5eraseEP7Context@Base 0.87
 _ZN9Journaler5flushEP7Context@Base 0.87
 _ZN9Journaler6C_Read6finishEi@Base 0.87
 _ZN9Journaler6C_ReadD0Ev@Base 0.87
 _ZN9Journaler6C_ReadD1Ev@Base 0.87
 _ZN9Journaler6C_ReadD2Ev@Base 0.87
 _ZN9Journaler6C_Trim6finishEi@Base 0.87
 _ZN9Journaler6C_TrimD0Ev@Base 0.87
 _ZN9Journaler6C_TrimD1Ev@Base 0.87
 _ZN9Journaler6C_TrimD2Ev@Base 0.87
 _ZN9Journaler6Header6decodeERN4ceph6buffer4list8iteratorE@Base 0.87
 _ZN9Journaler6HeaderD1Ev@Base 0.87
 _ZN9Journaler6HeaderD2Ev@Base 0.87
 _ZN9Journaler6_flushEP12C_OnFinisher@Base 0.87
 _ZN9Journaler6_probeEP7ContextPm@Base 0.87
 _ZN9Journaler6createEP13file_layout_th@Base 0.87
 _ZN9Journaler7C_Flush6finishEi@Base 0.87
 _ZN9Journaler7C_FlushD0Ev@Base 0.87
 _ZN9Journaler7C_FlushD1Ev@Base 0.87
 _ZN9Journaler7C_FlushD2Ev@Base 0.87
 _ZN9Journaler7recoverEP7Context@Base 0.87
 _ZN9Journaler8_reprobeEP12C_OnFinisher@Base 0.87
 _ZN9Journaler8shutdownEv@Base 0.87
 _ZN9Journaler9C_ReProbe6finishEi@Base 0.87
 _ZN9Journaler9C_ReProbeD0Ev@Base 0.87
 _ZN9Journaler9C_ReProbeD1Ev@Base 0.87
 _ZN9Journaler9C_ReProbeD2Ev@Base 0.87
 _ZN9Journaler9_do_flushEj@Base 0.87
 _ZN9Journaler9_prefetchEv@Base 0.87
 _ZN9LRUObject9lru_unpinEv@Base 0.87
 _ZN9Messenger5readyEv@Base 0.87
 _ZN9Messenger5startEv@Base 0.87
 _ZN9Messenger8shutdownEv@Base 0.87
 _ZN9MonClient7sub_gotENSt7__cxx1112basic_stringIcSt11char_traitsIcESaIcEEEm@Base 0.87
 _ZN9MonClient8sub_wantENSt7__cxx1112basic_stringIcSt11char_traitsIcESaIcEEEmj@Base 0.87
 _ZN9SnapRealm18build_snap_contextEv@Base 0.87
 _ZN9hobject_t16build_hash_cacheEv@Base 0.87
 _ZN9hobject_tC1ERKS_@Base 0.87
 _ZN9hobject_tC2ERKS_@Base 0.87
 _ZN9hobject_tD1Ev@Base 0.87
 _ZN9hobject_tD2Ev@Base 0.87
 _ZN9hobject_taSEOS_@Base 0.87
 _ZNK10Dispatcher20ms_can_fast_dispatchEP7Message@Base 0.87
 _ZNK10Dispatcher24ms_can_fast_dispatch_anyEv@Base 0.87
 _ZNK10fragtree_t18get_branch_or_leafE6frag_t@Base 0.87
 _ZNK10fragtree_t7is_leafE6frag_t@Base 0.87
 _ZNK10fragtree_tixEj@Base 0.87
 _ZNK11MClientCaps13get_type_nameEv@Base 0.87
 _ZNK11MClientCaps5printERSo@Base 0.87
 _ZNK11MMonCommand13get_type_nameEv@Base 0.87
 _ZNK11MMonCommand5printERSo@Base 0.87
 _ZNK11MetaRequest4dumpEPN4ceph9FormatterE@Base 0.87
 _ZNK11MetaSession14get_state_nameEv@Base 0.87
 _ZNK11MetaSession4dumpEPN4ceph9FormatterE@Base 0.87
 _ZNK12MClientLease13get_type_nameEv@Base 0.87
 _ZNK12MClientLease5printERSo@Base 0.87
 _ZNK12ObjectCacher12verify_statsEv@Base 0.87
 _ZNK13JournalStream8readableERN4ceph6buffer4listEPm@Base 0.87
 _ZNK13MGetPoolStats13get_type_nameEv@Base 0.87
 _ZNK13MGetPoolStats5printERSo@Base 0.87
 _ZNK14MClientRequest13get_type_nameEv@Base 0.87
 _ZNK14MClientRequest5printERSo@Base 0.87
 _ZNK14MClientSession13get_type_nameEv@Base 0.87
 _ZNK14MClientSession5printERSo@Base 0.87
 _ZNK16MClientReconnect13get_type_nameEv@Base 0.87
 _ZNK16MClientReconnect5printERSo@Base 0.87
 _ZNK17MClientCapRelease13get_type_nameEv@Base 0.87
 _ZNK17MClientCapRelease5printERSo@Base 0.87
 _ZNK19PaxosServiceMessage13get_type_nameEv@Base 0.87
 _ZNK3Cap4dumpEPN4ceph9FormatterE@Base 0.87
 _ZNK4ceph13shunique_lockIN5boost12shared_mutexEE8lockableEv@Base 0.87
 _ZNK4pg_t6encodeERN4ceph6buffer4listE@Base 0.87
 _ZNK5FSMap12get_mds_infoEv@Base 0.87
 _ZNK5Inode11caps_issuedEPi@Base 0.87
 _ZNK5Inode12cap_is_validEP3Cap@Base 0.87
 _ZNK5Inode4dumpEPN4ceph9FormatterE@Base 0.87
 _ZNK5MPing13get_type_nameEv@Base 0.87
 _ZNK5boost16bad_lexical_cast4whatEv@Base 0.87
 _ZNK5boost16exception_detail10clone_implINS0_19error_info_injectorINS_10lock_errorEEEE5cloneEv@Base 0.87
 _ZNK5boost16exception_detail10clone_implINS0_19error_info_injectorINS_10lock_errorEEEE7rethrowEv@Base 0.87
 _ZNK5boost16exception_detail10clone_implINS0_19error_info_injectorINS_15condition_errorEEEE5cloneEv@Base 0.87
 _ZNK5boost16exception_detail10clone_implINS0_19error_info_injectorINS_15condition_errorEEEE7rethrowEv@Base 0.87
 _ZNK5boost16exception_detail10clone_implINS0_19error_info_injectorINS_16bad_lexical_castEEEE5cloneEv@Base 0.87
 _ZNK5boost16exception_detail10clone_implINS0_19error_info_injectorINS_16bad_lexical_castEEEE7rethrowEv@Base 0.87
 _ZNK5boost16exception_detail10clone_implINS0_19error_info_injectorINS_17bad_function_callEEEE5cloneEv@Base 0.87
 _ZNK5boost16exception_detail10clone_implINS0_19error_info_injectorINS_17bad_function_callEEEE7rethrowEv@Base 0.87
 _ZNK5boost16exception_detail10clone_implINS0_19error_info_injectorINS_21thread_resource_errorEEEE5cloneEv@Base 0.87
 _ZNK5boost16exception_detail10clone_implINS0_19error_info_injectorINS_21thread_resource_errorEEEE7rethrowEv@Base 0.87
 _ZNK5boost6system12system_error4whatEv@Base 0.87
 _ZNK6Client18_get_random_up_mdsEv@Base 0.87
 _ZNK6Client21get_tracked_conf_keysEv@Base 0.87
 _ZNK6Dentry4dumpEPN4ceph9FormatterE@Base 0.87
 _ZNK6MDSMap9get_stateEi@Base 0.87
 _ZNK6MOSDOp13get_type_nameEv@Base 0.87
 _ZNK6MOSDOp5printERSo@Base 0.87
 _ZNK6OSDMap12get_num_osdsEv@Base 0.87
 _ZNK6OSDMap19lookup_pg_pool_nameERKNSt7__cxx1112basic_stringIcSt11char_traitsIcESaIcEEE@Base 0.87
 _ZNK6OSDMap8get_instEi@Base 0.87
 _ZNK6OSDMap9get_epochEv@Base 0.87
 _ZNK6RWLock6unlockEb@Base 0.87
 _ZNK6frag_t5splitEiRNSt7__cxx114listIS_SaIS_EEE@Base 0.87
 _ZNK7CapSnap4dumpEPN4ceph9FormatterE@Base 0.87
 _ZNK7MOSDMap8get_lastEv@Base 0.87
 _ZNK7MPoolOp13get_type_nameEv@Base 0.87
 _ZNK7MPoolOp5printERSo@Base 0.87
 _ZNK7MStatfs13get_type_nameEv@Base 0.87
 _ZNK7MStatfs5printERSo@Base 0.87
 _ZNK7Message15get_source_instEv@Base 0.87
 _ZNK7Message5printERSo@Base 0.87
 _ZNK7Message8get_costEv@Base 0.87
 _ZNK7utime_t9localtimeERSo@Base 0.87
 _ZNK8MCommand13get_type_nameEv@Base 0.87
 _ZNK8MCommand5printERSo@Base 0.87
 _ZNK8Objecter11op_target_t4dumpEPN4ceph9FormatterE@Base 0.87
 _ZNK8Objecter13dump_pool_opsEPN4ceph9FormatterE@Base 0.87
 _ZNK8Objecter15dump_statfs_opsEPN4ceph9FormatterE@Base 0.87
 _ZNK8Objecter16osdmap_full_flagEv@Base 0.87
 _ZNK8Objecter16osdmap_pool_fullEl@Base 0.87
 _ZNK8Objecter17_osdmap_full_flagEv@Base 0.87
 _ZNK8Objecter17_osdmap_pool_fullERK9pg_pool_t@Base 0.87
 _ZNK8Objecter17_osdmap_pool_fullEl@Base 0.87
 _ZNK8Objecter18dump_pool_stat_opsEPN4ceph9FormatterE@Base 0.87
 _ZNK8Objecter20ms_can_fast_dispatchEP7Message@Base 0.87
 _ZNK8Objecter21_osdmap_has_pool_fullEv@Base 0.87
 _ZNK8Objecter21get_tracked_conf_keysEv@Base 0.87
 _ZNK8Objecter24ms_can_fast_dispatch_anyEv@Base 0.87
 _ZNK8filepath10parse_bitsEv@Base 0.87
 _ZNK8filepath11last_dentryB5cxx11Ev@Base 0.87
 _ZNK9SnapRealm4dumpEPN4ceph9FormatterE@Base 0.87
 _ZNKSt10_HashtableI10vinodeno_tSt4pairIKS0_P5InodeESaIS5_ENSt8__detail10_Select1stESt8equal_toIS0_ESt4hashIS0_ENS7_18_Mod_range_hashingENS7_20_Default_ranged_hashENS7_20_Prime_rehash_policyENS7_17_Hashtable_traitsILb1ELb0ELb1EEEE19_M_find_before_nodeEmRS2_m@Base 0.87
 _ZNKSt10_HashtableI10vinodeno_tSt4pairIKS0_P5InodeESaIS5_ENSt8__detail10_Select1stESt8equal_toIS0_ESt4hashIS0_ENS7_18_Mod_range_hashingENS7_20_Default_ranged_hashENS7_20_Prime_rehash_policyENS7_17_Hashtable_traitsILb1ELb0ELb1EEEE5countERS2_@Base 0.87
 _ZNKSt10_HashtableI9inodeno_tSt4pairIKS0_P9SnapRealmESaIS5_ENSt8__detail10_Select1stESt8equal_toIS0_ESt4hashIS0_ENS7_18_Mod_range_hashingENS7_20_Default_ranged_hashENS7_20_Prime_rehash_policyENS7_17_Hashtable_traitsILb1ELb0ELb1EEEE19_M_find_before_nodeEmRS2_m@Base 0.87
 _ZNKSt10_HashtableI9sobject_tSt4pairIKS0_PN12ObjectCacher6ObjectEESaIS6_ENSt8__detail10_Select1stESt8equal_toIS0_ESt4hashIS0_ENS8_18_Mod_range_hashingENS8_20_Default_ranged_hashENS8_20_Prime_rehash_policyENS8_17_Hashtable_traitsILb1ELb0ELb1EEEE19_M_find_before_nodeEmRS2_m@Base 0.87
 _ZNKSt10_HashtableI9sobject_tSt4pairIKS0_PN12ObjectCacher6ObjectEESaIS6_ENSt8__detail10_Select1stESt8equal_toIS0_ESt4hashIS0_ENS8_18_Mod_range_hashingENS8_20_Default_ranged_hashENS8_20_Prime_rehash_policyENS8_17_Hashtable_traitsILb1ELb0ELb1EEEE5countERS2_@Base 0.87
 _ZNKSt10_HashtableINSt7__cxx1112basic_stringIcSt11char_traitsIcESaIcEEESt4pairIKS5_P6DentryESaISA_ENSt8__detail10_Select1stESt8equal_toIS5_ESt4hashIS5_ENSC_18_Mod_range_hashingENSC_20_Default_ranged_hashENSC_20_Prime_rehash_policyENSC_17_Hashtable_traitsILb1ELb0ELb1EEEE19_M_find_before_nodeEmRS7_m@Base 0.87
 _ZNKSt10_HashtableINSt7__cxx1112basic_stringIcSt11char_traitsIcESaIcEEESt4pairIKS5_P6DentryESaISA_ENSt8__detail10_Select1stESt8equal_toIS5_ESt4hashIS5_ENSC_18_Mod_range_hashingENSC_20_Default_ranged_hashENSC_20_Prime_rehash_policyENSC_17_Hashtable_traitsILb1ELb0ELb1EEEE5countERS7_@Base 0.87
 _ZNKSt5ctypeIcE8do_widenEc@Base 0.87
 _ZNKSt8_Rb_treeINSt7__cxx1112basic_stringIcSt11char_traitsIcESaIcEEES5_St9_IdentityIS5_ESt4lessIS5_ESaIS5_EE4findERKS5_@Base 0.87
 _ZNKSt8_Rb_treeINSt7__cxx1112basic_stringIcSt11char_traitsIcESaIcEEESt4pairIKS5_23ceph_mon_subscribe_itemESt10_Select1stIS9_ESt4lessIS5_ESaIS9_EE4findERS7_@Base 0.87
 _ZNKSt8_Rb_treeINSt7__cxx1112basic_stringIcSt11char_traitsIcESaIcEEESt4pairIKS5_N4ceph6buffer3ptrEESt10_Select1stISB_ESt4lessIS5_ESaISB_EE4findERS7_@Base 0.87
 _ZNKSt8_Rb_treeINSt7__cxx1112basic_stringIcSt11char_traitsIcESaIcEEESt4pairIKS5_lESt10_Select1stIS8_ESt4lessIS5_ESaIS8_EE4findERS7_@Base 0.87
 _ZNSt10_HashtableI10vinodeno_tSt4pairIKS0_P5InodeESaIS5_ENSt8__detail10_Select1stESt8equal_toIS0_ESt4hashIS0_ENS7_18_Mod_range_hashingENS7_20_Default_ranged_hashENS7_20_Prime_rehash_policyENS7_17_Hashtable_traitsILb1ELb0ELb1EEEE21_M_insert_unique_nodeEmmPNS7_10_Hash_nodeIS5_Lb1EEE@Base 0.87
 _ZNSt10_HashtableI10vinodeno_tSt4pairIKS0_P5InodeESaIS5_ENSt8__detail10_Select1stESt8equal_toIS0_ESt4hashIS0_ENS7_18_Mod_range_hashingENS7_20_Default_ranged_hashENS7_20_Prime_rehash_policyENS7_17_Hashtable_traitsILb1ELb0ELb1EEEE4findERS2_@Base 0.87
 _ZNSt10_HashtableI10vinodeno_tSt4pairIKS0_P5InodeESaIS5_ENSt8__detail10_Select1stESt8equal_toIS0_ESt4hashIS0_ENS7_18_Mod_range_hashingENS7_20_Default_ranged_hashENS7_20_Prime_rehash_policyENS7_17_Hashtable_traitsILb1ELb0ELb1EEEE5clearEv@Base 0.87
 _ZNSt10_HashtableI10vinodeno_tSt4pairIKS0_P5InodeESaIS5_ENSt8__detail10_Select1stESt8equal_toIS0_ESt4hashIS0_ENS7_18_Mod_range_hashingENS7_20_Default_ranged_hashENS7_20_Prime_rehash_policyENS7_17_Hashtable_traitsILb1ELb0ELb1EEEE9_M_rehashEmRKm@Base 0.87
 _ZNSt10_HashtableI10vinodeno_tSt4pairIKS0_P5InodeESaIS5_ENSt8__detail10_Select1stESt8equal_toIS0_ESt4hashIS0_ENS7_18_Mod_range_hashingENS7_20_Default_ranged_hashENS7_20_Prime_rehash_policyENS7_17_Hashtable_traitsILb1ELb0ELb1EEEED1Ev@Base 0.87
 _ZNSt10_HashtableI10vinodeno_tSt4pairIKS0_P5InodeESaIS5_ENSt8__detail10_Select1stESt8equal_toIS0_ESt4hashIS0_ENS7_18_Mod_range_hashingENS7_20_Default_ranged_hashENS7_20_Prime_rehash_policyENS7_17_Hashtable_traitsILb1ELb0ELb1EEEED2Ev@Base 0.87
 _ZNSt10_HashtableI13entity_addr_tSt4pairIKS0_7utime_tESaIS4_ENSt8__detail10_Select1stESt8equal_toIS0_ESt4hashIS0_ENS6_18_Mod_range_hashingENS6_20_Default_ranged_hashENS6_20_Prime_rehash_policyENS6_17_Hashtable_traitsILb1ELb0ELb1EEEE5clearEv@Base 0.87
 _ZNSt10_HashtableI13entity_addr_tSt4pairIKS0_7utime_tESaIS4_ENSt8__detail10_Select1stESt8equal_toIS0_ESt4hashIS0_ENS6_18_Mod_range_hashingENS6_20_Default_ranged_hashENS6_20_Prime_rehash_policyENS6_17_Hashtable_traitsILb1ELb0ELb1EEEE9_M_assignIZNSH_aSERKSH_EUlPKNS6_10_Hash_nodeIS4_Lb1EEEE0_EEvSK_RKT_@Base 0.87
 _ZNSt10_HashtableI13entity_addr_tSt4pairIKS0_7utime_tESaIS4_ENSt8__detail10_Select1stESt8equal_toIS0_ESt4hashIS0_ENS6_18_Mod_range_hashingENS6_20_Default_ranged_hashENS6_20_Prime_rehash_policyENS6_17_Hashtable_traitsILb1ELb0ELb1EEEEaSERKSH_@Base 0.87
 _ZNSt10_HashtableI9inodeno_tS0_SaIS0_ENSt8__detail9_IdentityESt8equal_toIS0_ESt4hashIS0_ENS2_18_Mod_range_hashingENS2_20_Default_ranged_hashENS2_20_Prime_rehash_policyENS2_17_Hashtable_traitsILb1ELb1ELb1EEEE21_M_insert_unique_nodeEmmPNS2_10_Hash_nodeIS0_Lb1EEE@Base 0.87
 _ZNSt10_HashtableI9inodeno_tS0_SaIS0_ENSt8__detail9_IdentityESt8equal_toIS0_ESt4hashIS0_ENS2_18_Mod_range_hashingENS2_20_Default_ranged_hashENS2_20_Prime_rehash_policyENS2_17_Hashtable_traitsILb1ELb1ELb1EEEE9_M_insertIRKS0_NS2_10_AllocNodeISaINS2_10_Hash_nodeIS0_Lb1EEEEEEEESt4pairINS2_14_Node_iteratorIS0_Lb1ELb1EEEbEOT_RKT0_St17integral_constantIbLb1EE@Base 0.87
 _ZNSt10_HashtableI9inodeno_tS0_SaIS0_ENSt8__detail9_IdentityESt8equal_toIS0_ESt4hashIS0_ENS2_18_Mod_range_hashingENS2_20_Default_ranged_hashENS2_20_Prime_rehash_policyENS2_17_Hashtable_traitsILb1ELb1ELb1EEEE9_M_rehashEmRKm@Base 0.87
 _ZNSt10_HashtableI9inodeno_tS0_SaIS0_ENSt8__detail9_IdentityESt8equal_toIS0_ESt4hashIS0_ENS2_18_Mod_range_hashingENS2_20_Default_ranged_hashENS2_20_Prime_rehash_policyENS2_17_Hashtable_traitsILb1ELb1ELb1EEEED1Ev@Base 0.87
 _ZNSt10_HashtableI9inodeno_tS0_SaIS0_ENSt8__detail9_IdentityESt8equal_toIS0_ESt4hashIS0_ENS2_18_Mod_range_hashingENS2_20_Default_ranged_hashENS2_20_Prime_rehash_policyENS2_17_Hashtable_traitsILb1ELb1ELb1EEEED2Ev@Base 0.87
 _ZNSt10_HashtableI9inodeno_tSt4pairIKS0_P9SnapRealmESaIS5_ENSt8__detail10_Select1stESt8equal_toIS0_ESt4hashIS0_ENS7_18_Mod_range_hashingENS7_20_Default_ranged_hashENS7_20_Prime_rehash_policyENS7_17_Hashtable_traitsILb1ELb0ELb1EEEE21_M_insert_unique_nodeEmmPNS7_10_Hash_nodeIS5_Lb1EEE@Base 0.87
 _ZNSt10_HashtableI9inodeno_tSt4pairIKS0_P9SnapRealmESaIS5_ENSt8__detail10_Select1stESt8equal_toIS0_ESt4hashIS0_ENS7_18_Mod_range_hashingENS7_20_Default_ranged_hashENS7_20_Prime_rehash_policyENS7_17_Hashtable_traitsILb1ELb0ELb1EEEE9_M_rehashEmRKm@Base 0.87
 _ZNSt10_HashtableI9inodeno_tSt4pairIKS0_P9SnapRealmESaIS5_ENSt8__detail10_Select1stESt8equal_toIS0_ESt4hashIS0_ENS7_18_Mod_range_hashingENS7_20_Default_ranged_hashENS7_20_Prime_rehash_policyENS7_17_Hashtable_traitsILb1ELb0ELb1EEEED1Ev@Base 0.87
 _ZNSt10_HashtableI9inodeno_tSt4pairIKS0_P9SnapRealmESaIS5_ENSt8__detail10_Select1stESt8equal_toIS0_ESt4hashIS0_ENS7_18_Mod_range_hashingENS7_20_Default_ranged_hashENS7_20_Prime_rehash_policyENS7_17_Hashtable_traitsILb1ELb0ELb1EEEED2Ev@Base 0.87
 _ZNSt10_HashtableI9sobject_tSt4pairIKS0_PN12ObjectCacher6ObjectEESaIS6_ENSt8__detail10_Select1stESt8equal_toIS0_ESt4hashIS0_ENS8_18_Mod_range_hashingENS8_20_Default_ranged_hashENS8_20_Prime_rehash_policyENS8_17_Hashtable_traitsILb1ELb0ELb1EEEE21_M_insert_unique_nodeEmmPNS8_10_Hash_nodeIS6_Lb1EEE@Base 0.87
 _ZNSt10_HashtableI9sobject_tSt4pairIKS0_PN12ObjectCacher6ObjectEESaIS6_ENSt8__detail10_Select1stESt8equal_toIS0_ESt4hashIS0_ENS8_18_Mod_range_hashingENS8_20_Default_ranged_hashENS8_20_Prime_rehash_policyENS8_17_Hashtable_traitsILb1ELb0ELb1EEEED1Ev@Base 0.87
 _ZNSt10_HashtableI9sobject_tSt4pairIKS0_PN12ObjectCacher6ObjectEESaIS6_ENSt8__detail10_Select1stESt8equal_toIS0_ESt4hashIS0_ENS8_18_Mod_range_hashingENS8_20_Default_ranged_hashENS8_20_Prime_rehash_policyENS8_17_Hashtable_traitsILb1ELb0ELb1EEEED2Ev@Base 0.87
 _ZNSt10_HashtableINSt7__cxx1112basic_stringIcSt11char_traitsIcESaIcEEESt4pairIKS5_P6DentryESaISA_ENSt8__detail10_Select1stESt8equal_toIS5_ESt4hashIS5_ENSC_18_Mod_range_hashingENSC_20_Default_ranged_hashENSC_20_Prime_rehash_policyENSC_17_Hashtable_traitsILb1ELb0ELb1EEEE21_M_insert_unique_nodeEmmPNSC_10_Hash_nodeISA_Lb1EEE@Base 0.87
 _ZNSt10_HashtableINSt7__cxx1112basic_stringIcSt11char_traitsIcESaIcEEESt4pairIKS5_P6DentryESaISA_ENSt8__detail10_Select1stESt8equal_toIS5_ESt4hashIS5_ENSC_18_Mod_range_hashingENSC_20_Default_ranged_hashENSC_20_Prime_rehash_policyENSC_17_Hashtable_traitsILb1ELb0ELb1EEEE9_M_rehashEmRKm@Base 0.87
 _ZNSt10_HashtableIP12dir_result_tS1_SaIS1_ENSt8__detail9_IdentityESt8equal_toIS1_ESt4hashIS1_ENS3_18_Mod_range_hashingENS3_20_Default_ranged_hashENS3_20_Prime_rehash_policyENS3_17_Hashtable_traitsILb0ELb1ELb1EEEE21_M_insert_unique_nodeEmmPNS3_10_Hash_nodeIS1_Lb0EEE@Base 0.87
 _ZNSt10_HashtableIP12dir_result_tS1_SaIS1_ENSt8__detail9_IdentityESt8equal_toIS1_ESt4hashIS1_ENS3_18_Mod_range_hashingENS3_20_Default_ranged_hashENS3_20_Prime_rehash_policyENS3_17_Hashtable_traitsILb0ELb1ELb1EEEE9_M_rehashEmRKm@Base 0.87
 _ZNSt10_HashtableIP12dir_result_tS1_SaIS1_ENSt8__detail9_IdentityESt8equal_toIS1_ESt4hashIS1_ENS3_18_Mod_range_hashingENS3_20_Default_ranged_hashENS3_20_Prime_rehash_policyENS3_17_Hashtable_traitsILb0ELb1ELb1EEEED1Ev@Base 0.87
 _ZNSt10_HashtableIP12dir_result_tS1_SaIS1_ENSt8__detail9_IdentityESt8equal_toIS1_ESt4hashIS1_ENS3_18_Mod_range_hashingENS3_20_Default_ranged_hashENS3_20_Prime_rehash_policyENS3_17_Hashtable_traitsILb0ELb1ELb1EEEED2Ev@Base 0.87
 _ZNSt10_HashtableIiSt4pairIKiP2FhESaIS4_ENSt8__detail10_Select1stESt8equal_toIiESt4hashIiENS6_18_Mod_range_hashingENS6_20_Default_ranged_hashENS6_20_Prime_rehash_policyENS6_17_Hashtable_traitsILb0ELb0ELb1EEEE21_M_insert_unique_nodeEmmPNS6_10_Hash_nodeIS4_Lb0EEE@Base 0.87
 _ZNSt10_HashtableIiSt4pairIKiP2FhESaIS4_ENSt8__detail10_Select1stESt8equal_toIiESt4hashIiENS6_18_Mod_range_hashingENS6_20_Default_ranged_hashENS6_20_Prime_rehash_policyENS6_17_Hashtable_traitsILb0ELb0ELb1EEEE4findERS1_@Base 0.87
 _ZNSt10_HashtableIiSt4pairIKiP2FhESaIS4_ENSt8__detail10_Select1stESt8equal_toIiESt4hashIiENS6_18_Mod_range_hashingENS6_20_Default_ranged_hashENS6_20_Prime_rehash_policyENS6_17_Hashtable_traitsILb0ELb0ELb1EEEE5clearEv@Base 0.87
 _ZNSt10_HashtableIiSt4pairIKiP2FhESaIS4_ENSt8__detail10_Select1stESt8equal_toIiESt4hashIiENS6_18_Mod_range_hashingENS6_20_Default_ranged_hashENS6_20_Prime_rehash_policyENS6_17_Hashtable_traitsILb0ELb0ELb1EEEE8_M_eraseEmPNS6_15_Hash_node_baseEPNS6_10_Hash_nodeIS4_Lb0EEE@Base 0.87
 _ZNSt10_HashtableIiSt4pairIKiP2FhESaIS4_ENSt8__detail10_Select1stESt8equal_toIiESt4hashIiENS6_18_Mod_range_hashingENS6_20_Default_ranged_hashENS6_20_Prime_rehash_policyENS6_17_Hashtable_traitsILb0ELb0ELb1EEEE9_M_rehashEmRKm@Base 0.87
 _ZNSt10_HashtableIiSt4pairIKiP2FhESaIS4_ENSt8__detail10_Select1stESt8equal_toIiESt4hashIiENS6_18_Mod_range_hashingENS6_20_Default_ranged_hashENS6_20_Prime_rehash_policyENS6_17_Hashtable_traitsILb0ELb0ELb1EEEED1Ev@Base 0.87
 _ZNSt10_HashtableIiSt4pairIKiP2FhESaIS4_ENSt8__detail10_Select1stESt8equal_toIiESt4hashIiENS6_18_Mod_range_hashingENS6_20_Default_ranged_hashENS6_20_Prime_rehash_policyENS6_17_Hashtable_traitsILb0ELb0ELb1EEEED2Ev@Base 0.87
 _ZNSt10_HashtableImSt4pairIKm10vinodeno_tESaIS3_ENSt8__detail10_Select1stESt8equal_toImESt4hashImENS5_18_Mod_range_hashingENS5_20_Default_ranged_hashENS5_20_Prime_rehash_policyENS5_17_Hashtable_traitsILb0ELb0ELb1EEEE21_M_insert_unique_nodeEmmPNS5_10_Hash_nodeIS3_Lb0EEE@Base 0.87
 _ZNSt10_HashtableImSt4pairIKm10vinodeno_tESaIS3_ENSt8__detail10_Select1stESt8equal_toImESt4hashImENS5_18_Mod_range_hashingENS5_20_Default_ranged_hashENS5_20_Prime_rehash_policyENS5_17_Hashtable_traitsILb0ELb0ELb1EEEE9_M_rehashEmRS1_@Base 0.87
 _ZNSt10_HashtableImSt4pairIKm10vinodeno_tESaIS3_ENSt8__detail10_Select1stESt8equal_toImESt4hashImENS5_18_Mod_range_hashingENS5_20_Default_ranged_hashENS5_20_Prime_rehash_policyENS5_17_Hashtable_traitsILb0ELb0ELb1EEEED1Ev@Base 0.87
 _ZNSt10_HashtableImSt4pairIKm10vinodeno_tESaIS3_ENSt8__detail10_Select1stESt8equal_toImESt4hashImENS5_18_Mod_range_hashingENS5_20_Default_ranged_hashENS5_20_Prime_rehash_policyENS5_17_Hashtable_traitsILb0ELb0ELb1EEEED2Ev@Base 0.87
 _ZNSt11unique_lockIN5boost12shared_mutexEE4lockEv@Base 0.87
 _ZNSt11unique_lockIN5boost12shared_mutexEE6unlockEv@Base 0.87
 _ZNSt11unique_lockISt5mutexE6unlockEv@Base 0.87
 _ZNSt12system_errorC1EiRKNSt3_V214error_categoryE@Base 0.87
 _ZNSt12system_errorC2EiRKNSt3_V214error_categoryE@Base 0.87
 _ZNSt14_Function_base13_Base_managerISt5_BindIFSt7_Mem_fnIM8ObjecterFvvEEPS3_EEE10_M_managerERSt9_Any_dataRKSB_St18_Manager_operation@Base 0.87
 _ZNSt15_Sp_counted_ptrIPN6OSDMap7addrs_sELN9__gnu_cxx12_Lock_policyE2EE10_M_destroyEv@Base 0.87
 _ZNSt15_Sp_counted_ptrIPN6OSDMap7addrs_sELN9__gnu_cxx12_Lock_policyE2EE10_M_disposeEv@Base 0.87
 _ZNSt15_Sp_counted_ptrIPN6OSDMap7addrs_sELN9__gnu_cxx12_Lock_policyE2EE14_M_get_deleterERKSt9type_info@Base 0.87
 _ZNSt15_Sp_counted_ptrIPN6OSDMap7addrs_sELN9__gnu_cxx12_Lock_policyE2EED0Ev@Base 0.87
 _ZNSt15_Sp_counted_ptrIPN6OSDMap7addrs_sELN9__gnu_cxx12_Lock_policyE2EED1Ev@Base 0.87
 _ZNSt15_Sp_counted_ptrIPN6OSDMap7addrs_sELN9__gnu_cxx12_Lock_policyE2EED2Ev@Base 0.87
 _ZNSt15_Sp_counted_ptrIPSt3mapI4pg_tSt6vectorIiSaIiEESt4lessIS1_ESaISt4pairIKS1_S4_EEELN9__gnu_cxx12_Lock_policyE2EE10_M_destroyEv@Base 0.87
 _ZNSt15_Sp_counted_ptrIPSt3mapI4pg_tSt6vectorIiSaIiEESt4lessIS1_ESaISt4pairIKS1_S4_EEELN9__gnu_cxx12_Lock_policyE2EE10_M_disposeEv@Base 0.87
 _ZNSt15_Sp_counted_ptrIPSt3mapI4pg_tSt6vectorIiSaIiEESt4lessIS1_ESaISt4pairIKS1_S4_EEELN9__gnu_cxx12_Lock_policyE2EE14_M_get_deleterERKSt9type_info@Base 0.87
 _ZNSt15_Sp_counted_ptrIPSt3mapI4pg_tSt6vectorIiSaIiEESt4lessIS1_ESaISt4pairIKS1_S4_EEELN9__gnu_cxx12_Lock_policyE2EED0Ev@Base 0.87
 _ZNSt15_Sp_counted_ptrIPSt3mapI4pg_tSt6vectorIiSaIiEESt4lessIS1_ESaISt4pairIKS1_S4_EEELN9__gnu_cxx12_Lock_policyE2EED1Ev@Base 0.87
 _ZNSt15_Sp_counted_ptrIPSt3mapI4pg_tSt6vectorIiSaIiEESt4lessIS1_ESaISt4pairIKS1_S4_EEELN9__gnu_cxx12_Lock_policyE2EED2Ev@Base 0.87
 _ZNSt15_Sp_counted_ptrIPSt3mapI4pg_tiSt4lessIS1_ESaISt4pairIKS1_iEEELN9__gnu_cxx12_Lock_policyE2EE10_M_destroyEv@Base 0.87
 _ZNSt15_Sp_counted_ptrIPSt3mapI4pg_tiSt4lessIS1_ESaISt4pairIKS1_iEEELN9__gnu_cxx12_Lock_policyE2EE10_M_disposeEv@Base 0.87
 _ZNSt15_Sp_counted_ptrIPSt3mapI4pg_tiSt4lessIS1_ESaISt4pairIKS1_iEEELN9__gnu_cxx12_Lock_policyE2EE14_M_get_deleterERKSt9type_info@Base 0.87
 _ZNSt15_Sp_counted_ptrIPSt3mapI4pg_tiSt4lessIS1_ESaISt4pairIKS1_iEEELN9__gnu_cxx12_Lock_policyE2EED0Ev@Base 0.87
 _ZNSt15_Sp_counted_ptrIPSt3mapI4pg_tiSt4lessIS1_ESaISt4pairIKS1_iEEELN9__gnu_cxx12_Lock_policyE2EED1Ev@Base 0.87
 _ZNSt15_Sp_counted_ptrIPSt3mapI4pg_tiSt4lessIS1_ESaISt4pairIKS1_iEEELN9__gnu_cxx12_Lock_policyE2EED2Ev@Base 0.87
 _ZNSt15_Sp_counted_ptrIPSt6vectorI6uuid_dSaIS1_EELN9__gnu_cxx12_Lock_policyE2EE10_M_destroyEv@Base 0.87
 _ZNSt15_Sp_counted_ptrIPSt6vectorI6uuid_dSaIS1_EELN9__gnu_cxx12_Lock_policyE2EE10_M_disposeEv@Base 0.87
 _ZNSt15_Sp_counted_ptrIPSt6vectorI6uuid_dSaIS1_EELN9__gnu_cxx12_Lock_policyE2EE14_M_get_deleterERKSt9type_info@Base 0.87
 _ZNSt15_Sp_counted_ptrIPSt6vectorI6uuid_dSaIS1_EELN9__gnu_cxx12_Lock_policyE2EED0Ev@Base 0.87
 _ZNSt15_Sp_counted_ptrIPSt6vectorI6uuid_dSaIS1_EELN9__gnu_cxx12_Lock_policyE2EED1Ev@Base 0.87
 _ZNSt15_Sp_counted_ptrIPSt6vectorI6uuid_dSaIS1_EELN9__gnu_cxx12_Lock_policyE2EED2Ev@Base 0.87
 _ZNSt15_Sp_counted_ptrIPSt6vectorIjSaIjEELN9__gnu_cxx12_Lock_policyE2EE10_M_destroyEv@Base 0.87
 _ZNSt15_Sp_counted_ptrIPSt6vectorIjSaIjEELN9__gnu_cxx12_Lock_policyE2EE10_M_disposeEv@Base 0.87
 _ZNSt15_Sp_counted_ptrIPSt6vectorIjSaIjEELN9__gnu_cxx12_Lock_policyE2EE14_M_get_deleterERKSt9type_info@Base 0.87
 _ZNSt15_Sp_counted_ptrIPSt6vectorIjSaIjEELN9__gnu_cxx12_Lock_policyE2EED0Ev@Base 0.87
 _ZNSt15_Sp_counted_ptrIPSt6vectorIjSaIjEELN9__gnu_cxx12_Lock_policyE2EED1Ev@Base 0.87
 _ZNSt15_Sp_counted_ptrIPSt6vectorIjSaIjEELN9__gnu_cxx12_Lock_policyE2EED2Ev@Base 0.87
 _ZNSt16_Sp_counted_baseILN9__gnu_cxx12_Lock_policyE2EE10_M_releaseEv@Base 0.87
 _ZNSt17_Function_handlerIFvvESt5_BindIFSt7_Mem_fnIM8ObjecterFvvEEPS3_EEE9_M_invokeERKSt9_Any_data@Base 0.87
 _ZNSt20__uninitialized_copyILb0EE13__uninit_copyIPK5OSDOpPS2_EET0_T_S7_S6_@Base 0.87
 _ZNSt20__uninitialized_copyILb0EE13__uninit_copyISt13move_iteratorIPNSt7__cxx1112basic_stringIcSt11char_traitsIcESaIcEEEES9_EET0_T_SC_SB_@Base 0.87
 _ZNSt23_Sp_counted_ptr_inplaceI10FilesystemSaIS0_ELN9__gnu_cxx12_Lock_policyE2EE10_M_destroyEv@Base 0.87
 _ZNSt23_Sp_counted_ptr_inplaceI10FilesystemSaIS0_ELN9__gnu_cxx12_Lock_policyE2EE10_M_disposeEv@Base 0.87
 _ZNSt23_Sp_counted_ptr_inplaceI10FilesystemSaIS0_ELN9__gnu_cxx12_Lock_policyE2EE14_M_get_deleterERKSt9type_info@Base 0.87
 _ZNSt23_Sp_counted_ptr_inplaceI10FilesystemSaIS0_ELN9__gnu_cxx12_Lock_policyE2EED0Ev@Base 0.87
 _ZNSt23_Sp_counted_ptr_inplaceI10FilesystemSaIS0_ELN9__gnu_cxx12_Lock_policyE2EED1Ev@Base 0.87
 _ZNSt23_Sp_counted_ptr_inplaceI10FilesystemSaIS0_ELN9__gnu_cxx12_Lock_policyE2EED2Ev@Base 0.87
 _ZNSt23_Sp_counted_ptr_inplaceI12CrushWrapperSaIS0_ELN9__gnu_cxx12_Lock_policyE2EE10_M_destroyEv@Base 0.87
 _ZNSt23_Sp_counted_ptr_inplaceI12CrushWrapperSaIS0_ELN9__gnu_cxx12_Lock_policyE2EE10_M_disposeEv@Base 0.87
 _ZNSt23_Sp_counted_ptr_inplaceI12CrushWrapperSaIS0_ELN9__gnu_cxx12_Lock_policyE2EE14_M_get_deleterERKSt9type_info@Base 0.87
 _ZNSt23_Sp_counted_ptr_inplaceI12CrushWrapperSaIS0_ELN9__gnu_cxx12_Lock_policyE2EED0Ev@Base 0.87
 _ZNSt23_Sp_counted_ptr_inplaceI12CrushWrapperSaIS0_ELN9__gnu_cxx12_Lock_policyE2EED1Ev@Base 0.87
 _ZNSt23_Sp_counted_ptr_inplaceI12CrushWrapperSaIS0_ELN9__gnu_cxx12_Lock_policyE2EED2Ev@Base 0.87
 _ZNSt23_Sp_counted_ptr_inplaceIN6OSDMap7addrs_sESaIS1_ELN9__gnu_cxx12_Lock_policyE2EE10_M_destroyEv@Base 0.87
 _ZNSt23_Sp_counted_ptr_inplaceIN6OSDMap7addrs_sESaIS1_ELN9__gnu_cxx12_Lock_policyE2EE10_M_disposeEv@Base 0.87
 _ZNSt23_Sp_counted_ptr_inplaceIN6OSDMap7addrs_sESaIS1_ELN9__gnu_cxx12_Lock_policyE2EE14_M_get_deleterERKSt9type_info@Base 0.87
 _ZNSt23_Sp_counted_ptr_inplaceIN6OSDMap7addrs_sESaIS1_ELN9__gnu_cxx12_Lock_policyE2EED0Ev@Base 0.87
 _ZNSt23_Sp_counted_ptr_inplaceIN6OSDMap7addrs_sESaIS1_ELN9__gnu_cxx12_Lock_policyE2EED1Ev@Base 0.87
 _ZNSt23_Sp_counted_ptr_inplaceIN6OSDMap7addrs_sESaIS1_ELN9__gnu_cxx12_Lock_policyE2EED2Ev@Base 0.87
 _ZNSt23_Sp_counted_ptr_inplaceISt3mapI4pg_tSt6vectorIiSaIiEESt4lessIS1_ESaISt4pairIKS1_S4_EEESaISB_ELN9__gnu_cxx12_Lock_policyE2EE10_M_destroyEv@Base 0.87
 _ZNSt23_Sp_counted_ptr_inplaceISt3mapI4pg_tSt6vectorIiSaIiEESt4lessIS1_ESaISt4pairIKS1_S4_EEESaISB_ELN9__gnu_cxx12_Lock_policyE2EE10_M_disposeEv@Base 0.87
 _ZNSt23_Sp_counted_ptr_inplaceISt3mapI4pg_tSt6vectorIiSaIiEESt4lessIS1_ESaISt4pairIKS1_S4_EEESaISB_ELN9__gnu_cxx12_Lock_policyE2EE14_M_get_deleterERKSt9type_info@Base 0.87
 _ZNSt23_Sp_counted_ptr_inplaceISt3mapI4pg_tSt6vectorIiSaIiEESt4lessIS1_ESaISt4pairIKS1_S4_EEESaISB_ELN9__gnu_cxx12_Lock_policyE2EED0Ev@Base 0.87
 _ZNSt23_Sp_counted_ptr_inplaceISt3mapI4pg_tSt6vectorIiSaIiEESt4lessIS1_ESaISt4pairIKS1_S4_EEESaISB_ELN9__gnu_cxx12_Lock_policyE2EED1Ev@Base 0.87
 _ZNSt23_Sp_counted_ptr_inplaceISt3mapI4pg_tSt6vectorIiSaIiEESt4lessIS1_ESaISt4pairIKS1_S4_EEESaISB_ELN9__gnu_cxx12_Lock_policyE2EED2Ev@Base 0.87
 _ZNSt23_Sp_counted_ptr_inplaceISt3mapI4pg_tiSt4lessIS1_ESaISt4pairIKS1_iEEESaIS8_ELN9__gnu_cxx12_Lock_policyE2EE10_M_destroyEv@Base 0.87
 _ZNSt23_Sp_counted_ptr_inplaceISt3mapI4pg_tiSt4lessIS1_ESaISt4pairIKS1_iEEESaIS8_ELN9__gnu_cxx12_Lock_policyE2EE10_M_disposeEv@Base 0.87
 _ZNSt23_Sp_counted_ptr_inplaceISt3mapI4pg_tiSt4lessIS1_ESaISt4pairIKS1_iEEESaIS8_ELN9__gnu_cxx12_Lock_policyE2EE14_M_get_deleterERKSt9type_info@Base 0.87
 _ZNSt23_Sp_counted_ptr_inplaceISt3mapI4pg_tiSt4lessIS1_ESaISt4pairIKS1_iEEESaIS8_ELN9__gnu_cxx12_Lock_policyE2EED0Ev@Base 0.87
 _ZNSt23_Sp_counted_ptr_inplaceISt3mapI4pg_tiSt4lessIS1_ESaISt4pairIKS1_iEEESaIS8_ELN9__gnu_cxx12_Lock_policyE2EED1Ev@Base 0.87
 _ZNSt23_Sp_counted_ptr_inplaceISt3mapI4pg_tiSt4lessIS1_ESaISt4pairIKS1_iEEESaIS8_ELN9__gnu_cxx12_Lock_policyE2EED2Ev@Base 0.87
 _ZNSt23_Sp_counted_ptr_inplaceISt6vectorI6uuid_dSaIS1_EESaIS3_ELN9__gnu_cxx12_Lock_policyE2EE10_M_destroyEv@Base 0.87
 _ZNSt23_Sp_counted_ptr_inplaceISt6vectorI6uuid_dSaIS1_EESaIS3_ELN9__gnu_cxx12_Lock_policyE2EE10_M_disposeEv@Base 0.87
 _ZNSt23_Sp_counted_ptr_inplaceISt6vectorI6uuid_dSaIS1_EESaIS3_ELN9__gnu_cxx12_Lock_policyE2EE14_M_get_deleterERKSt9type_info@Base 0.87
 _ZNSt23_Sp_counted_ptr_inplaceISt6vectorI6uuid_dSaIS1_EESaIS3_ELN9__gnu_cxx12_Lock_policyE2EED0Ev@Base 0.87
 _ZNSt23_Sp_counted_ptr_inplaceISt6vectorI6uuid_dSaIS1_EESaIS3_ELN9__gnu_cxx12_Lock_policyE2EED1Ev@Base 0.87
 _ZNSt23_Sp_counted_ptr_inplaceISt6vectorI6uuid_dSaIS1_EESaIS3_ELN9__gnu_cxx12_Lock_policyE2EED2Ev@Base 0.87
 _ZNSt27__uninitialized_default_n_1ILb0EE18__uninit_default_nIP5OSDOpmEET_S4_T0_@Base 0.87
 _ZNSt3mapI8object_tmSt4lessIS0_ESaISt4pairIKS0_mEEEixERS4_@Base 0.87
 _ZNSt3mapINSt7__cxx1112basic_stringIcSt11char_traitsIcESaIcEEE23ceph_mon_subscribe_itemSt4lessIS5_ESaISt4pairIKS5_S6_EEEixERSA_@Base 0.87
 _ZNSt3mapINSt7__cxx1112basic_stringIcSt11char_traitsIcESaIcEEEN4ceph6buffer3ptrESt4lessIS5_ESaISt4pairIKS5_S8_EEEixEOS5_@Base 0.87
 _ZNSt3mapINSt7__cxx1112basic_stringIcSt11char_traitsIcESaIcEEEN4ceph6buffer3ptrESt4lessIS5_ESaISt4pairIKS5_S8_EEEixERSC_@Base 0.87
 _ZNSt3mapINSt7__cxx1112basic_stringIcSt11char_traitsIcESaIcEEES5_St4lessIS5_ESaISt4pairIKS5_S5_EEEixEOS5_@Base 0.87
 _ZNSt3mapINSt7__cxx1112basic_stringIcSt11char_traitsIcESaIcEEES5_St4lessIS5_ESaISt4pairIKS5_S5_EEEixERS9_@Base 0.87
 _ZNSt3mapISt4pairIlNSt7__cxx1112basic_stringIcSt11char_traitsIcESaIcEEEEiSt4lessIS7_ESaIS0_IKS7_iEEEixERSA_@Base 0.87
 _ZNSt3mapIiP11MetaSessionSt4lessIiESaISt4pairIKiS1_EEEixERS5_@Base 0.87
 _ZNSt3mapIiP3CapSt4lessIiESaISt4pairIKiS1_EEEixERS5_@Base 0.87
 _ZNSt3mapIjN4ceph6buffer4listESt4lessIjESaISt4pairIKjS2_EEEixERS6_@Base 0.87
 _ZNSt3mapIlPN12ObjectCacher10BufferHeadESt4lessIlESaISt4pairIKlS2_EEEixERS6_@Base 0.87
 _ZNSt3mapImNSt7__cxx114listIP7ContextSaIS3_EEESt4lessImESaISt4pairIKmS5_EEEixERS9_@Base 0.87
 _ZNSt3mapImPN8Objecter2OpESt4lessImESaISt4pairIKmS2_EEEixERS6_@Base 0.87
 _ZNSt3mapImPN8Objecter6PoolOpESt4lessImESaISt4pairIKmS2_EEEixERS6_@Base 0.87
 _ZNSt3mapImmSt4lessImESaISt4pairIKmmEEEixERS3_@Base 0.87
 _ZNSt4pairINSt7__cxx1112basic_stringIcSt11char_traitsIcESaIcEEES5_ED1Ev@Base 0.87
 _ZNSt4pairINSt7__cxx1112basic_stringIcSt11char_traitsIcESaIcEEES5_ED2Ev@Base 0.87
 _ZNSt5mutex4lockEv@Base 0.87
 _ZNSt6thread11_State_implISt12_Bind_simpleIFSt7_Mem_fnIMN4ceph12timer_detail5timerINS3_11time_detail10mono_clockEEEFvvEEPS8_EEE6_M_runEv@Base 0.87
 _ZNSt6thread11_State_implISt12_Bind_simpleIFSt7_Mem_fnIMN4ceph12timer_detail5timerINS3_11time_detail10mono_clockEEEFvvEEPS8_EEED0Ev@Base 0.87
 _ZNSt6thread11_State_implISt12_Bind_simpleIFSt7_Mem_fnIMN4ceph12timer_detail5timerINS3_11time_detail10mono_clockEEEFvvEEPS8_EEED1Ev@Base 0.87
 _ZNSt6thread11_State_implISt12_Bind_simpleIFSt7_Mem_fnIMN4ceph12timer_detail5timerINS3_11time_detail10mono_clockEEEFvvEEPS8_EEED2Ev@Base 0.87
 _ZNSt6vectorI10osd_info_tSaIS0_EEaSERKS2_@Base 0.87
 _ZNSt6vectorI11osd_xinfo_tSaIS0_EEaSERKS2_@Base 0.87
 _ZNSt6vectorI12ObjectExtentSaIS0_EE17_M_default_appendEm@Base 0.87
 _ZNSt6vectorI12ObjectExtentSaIS0_EE19_M_emplace_back_auxIJRKS0_EEEvDpOT_@Base 0.87
 _ZNSt6vectorI12ObjectExtentSaIS0_EED1Ev@Base 0.87
 _ZNSt6vectorI12ObjectExtentSaIS0_EED2Ev@Base 0.87
 _ZNSt6vectorI13entity_addr_tSaIS0_EE19_M_emplace_back_auxIJRKS0_EEEvDpOT_@Base 0.87
 _ZNSt6vectorI17ceph_mds_cap_itemSaIS0_EE17_M_default_appendEm@Base 0.87
 _ZNSt6vectorI17ceph_mds_cap_itemSaIS0_EE19_M_emplace_back_auxIJRKS0_EEEvDpOT_@Base 0.87
 _ZNSt6vectorI28ceph_mds_snaprealm_reconnectSaIS0_EE19_M_emplace_back_auxIJS0_EEEvDpOT_@Base 0.87
 _ZNSt6vectorI5OSDOpSaIS0_EE17_M_default_appendEm@Base 0.87
 _ZNSt6vectorI5OSDOpSaIS0_EE19_M_emplace_back_auxIJS0_EEEvDpOT_@Base 0.87
 _ZNSt6vectorI5OSDOpSaIS0_EE6resizeEm@Base 0.87
 _ZNSt6vectorI5OSDOpSaIS0_EED1Ev@Base 0.87
 _ZNSt6vectorI5OSDOpSaIS0_EED2Ev@Base 0.87
 _ZNSt6vectorI5OSDOpSaIS0_EEaSERKS2_@Base 0.87
 _ZNSt6vectorI8object_tSaIS0_EE19_M_emplace_back_auxIJS0_EEEvDpOT_@Base 0.87
 _ZNSt6vectorI8snapid_tSaIS0_EE17_M_default_appendEm@Base 0.87
 _ZNSt6vectorI8snapid_tSaIS0_EEaSERKS2_@Base 0.87
 _ZNSt6vectorI9mds_gid_tSaIS0_EE19_M_emplace_back_auxIJRKS0_EEEvDpOT_@Base 0.87
 _ZNSt6vectorIN14MClientRequest7ReleaseESaIS1_EE17_M_default_appendEm@Base 0.87
 _ZNSt6vectorIN14MClientRequest7ReleaseESaIS1_EE19_M_emplace_back_auxIJS1_EEEvDpOT_@Base 0.87
 _ZNSt6vectorIN8librados18inconsistent_obj_tESaIS1_EE19_M_emplace_back_auxIJRKS1_EEEvDpOT_@Base 0.87
 _ZNSt6vectorIN8librados22inconsistent_snapset_tESaIS1_EE19_M_emplace_back_auxIJRKS1_EEEvDpOT_@Base 0.87
 _ZNSt6vectorINSt7__cxx1112basic_stringIcSt11char_traitsIcESaIcEEESaIS5_EE12emplace_backIJS5_EEEvDpOT_@Base 0.87
 _ZNSt6vectorINSt7__cxx1112basic_stringIcSt11char_traitsIcESaIcEEESaIS5_EE13_M_insert_auxIJRKS5_EEEvN9__gnu_cxx17__normal_iteratorIPS5_S7_EEDpOT_@Base 0.87
 _ZNSt6vectorINSt7__cxx1112basic_stringIcSt11char_traitsIcESaIcEEESaIS5_EE13_M_insert_auxIJS5_EEEvN9__gnu_cxx17__normal_iteratorIPS5_S7_EEDpOT_@Base 0.87
 _ZNSt6vectorINSt7__cxx1112basic_stringIcSt11char_traitsIcESaIcEEESaIS5_EE17_M_default_appendEm@Base 0.87
 _ZNSt6vectorINSt7__cxx1112basic_stringIcSt11char_traitsIcESaIcEEESaIS5_EE19_M_emplace_back_auxIJRKS5_EEEvDpOT_@Base 0.87
 _ZNSt6vectorINSt7__cxx1112basic_stringIcSt11char_traitsIcESaIcEEESaIS5_EE19_M_emplace_back_auxIJS5_EEEvDpOT_@Base 0.87
 _ZNSt6vectorINSt7__cxx1112basic_stringIcSt11char_traitsIcESaIcEEESaIS5_EED1Ev@Base 0.87
 _ZNSt6vectorINSt7__cxx1112basic_stringIcSt11char_traitsIcESaIcEEESaIS5_EED2Ev@Base 0.87
 _ZNSt6vectorINSt7__cxx1112basic_stringIcSt11char_traitsIcESaIcEEESaIS5_EEaSERKS7_@Base 0.87
 _ZNSt6vectorIP6DentrySaIS1_EE17_M_default_appendEm@Base 0.87
 _ZNSt6vectorIP6DentrySaIS1_EE19_M_emplace_back_auxIJRKS1_EEEvDpOT_@Base 0.87
 _ZNSt6vectorIP7ContextSaIS1_EE17_M_default_appendEm@Base 0.87
 _ZNSt6vectorIP7ContextSaIS1_EE19_M_emplace_back_auxIJS1_EEEvDpOT_@Base 0.87
 _ZNSt6vectorIPN4ceph6buffer4listESaIS3_EE17_M_default_appendEm@Base 0.87
 _ZNSt6vectorIPiSaIS0_EE17_M_default_appendEm@Base 0.87
 _ZNSt6vectorISt10shared_ptrI13entity_addr_tESaIS2_EED1Ev@Base 0.87
 _ZNSt6vectorISt10shared_ptrI13entity_addr_tESaIS2_EED2Ev@Base 0.87
 _ZNSt6vectorISt13unordered_mapI9sobject_tPN12ObjectCacher6ObjectESt4hashIS1_ESt8equal_toIS1_ESaISt4pairIKS1_S4_EEESaISD_EE17_M_default_appendEm@Base 0.87
 _ZNSt6vectorISt4pairIlmESaIS1_EE12emplace_backIJS1_EEEvDpOT_@Base 0.87
 _ZNSt6vectorISt4pairIlmESaIS1_EE19_M_emplace_back_auxIJS1_EEEvDpOT_@Base 0.87
 _ZNSt6vectorISt4pairImN4ceph6buffer4listEESaIS4_EE17_M_default_appendEm@Base 0.87
 _ZNSt6vectorISt4pairImN4ceph6buffer4listEESaIS4_EE7reserveEm@Base 0.87
 _ZNSt6vectorISt4pairImmESaIS1_EE12emplace_backIJS1_EEEvDpOT_@Base 0.87
 _ZNSt6vectorISt4pairImmESaIS1_EE19_M_emplace_back_auxIJS1_EEEvDpOT_@Base 0.87
 _ZNSt6vectorIiSaIiEEaSERKS1_@Base 0.87
 _ZNSt6vectorIjSaIjEEaSERKS1_@Base 0.87
 _ZNSt6vectorIlSaIlEE19_M_emplace_back_auxIJRKlEEEvDpOT_@Base 0.87
 _ZNSt6vectorImSaImEE19_M_emplace_back_auxIJmEEEvDpOT_@Base 0.87
 _ZNSt7__cxx1110_List_baseIN4ceph6buffer3ptrESaIS3_EE8_M_clearEv@Base 0.87
 _ZNSt7__cxx1110_List_baseIN8librados14ListObjectImplESaIS2_EE8_M_clearEv@Base 0.87
 _ZNSt7__cxx1110_List_baseINS_12basic_stringIcSt11char_traitsIcESaIcEEESaIS5_EE8_M_clearEv@Base 0.87
 _ZNSt7__cxx1110_List_baseISt4pairI8object_tNS_12basic_stringIcSt11char_traitsIcESaIcEEEESaIS8_EE8_M_clearEv@Base 0.87
 _ZNSt7__cxx1115basic_stringbufIcSt11char_traitsIcESaIcEED0Ev@Base 0.87
 _ZNSt7__cxx1115basic_stringbufIcSt11char_traitsIcESaIcEED1Ev@Base 0.87
 _ZNSt7__cxx1115basic_stringbufIcSt11char_traitsIcESaIcEED2Ev@Base 0.87
 _ZNSt7__cxx114listIN4ceph6buffer3ptrESaIS3_EE18_M_assign_dispatchISt20_List_const_iteratorIS3_EEEvT_S9_St12__false_type@Base 0.87
 _ZNSt7__cxx114listIN8librados14ListObjectImplESaIS2_EE5mergeEOS4_@Base 0.87
 _ZNSt7__cxx114listINS_12basic_stringIcSt11char_traitsIcESaIcEEESaIS5_EE18_M_assign_dispatchISt20_List_const_iteratorIS5_EEEvT_SB_St12__false_type@Base 0.87
 _ZNSt7__cxx114listISt4pairI8object_tNS_12basic_stringIcSt11char_traitsIcESaIcEEEESaIS8_EE5mergeEOSA_@Base 0.87
 _ZNSt8_Rb_treeI13entity_addr_tSt4pairIKS0_7utime_tESt10_Select1stIS4_ESt4lessIS0_ESaIS4_EE8_M_eraseEPSt13_Rb_tree_nodeIS4_E@Base 0.87
 _ZNSt8_Rb_treeI4pg_tSt4pairIKS0_St6vectorIiSaIiEEESt10_Select1stIS6_ESt4lessIS0_ESaIS6_EE7_M_copyINSC_11_Alloc_nodeEEEPSt13_Rb_tree_nodeIS6_EPKSG_PSt18_Rb_tree_node_baseRT_@Base 0.87
 _ZNSt8_Rb_treeI4pg_tSt4pairIKS0_St6vectorIiSaIiEEESt10_Select1stIS6_ESt4lessIS0_ESaIS6_EE8_M_eraseEPSt13_Rb_tree_nodeIS6_E@Base 0.87
 _ZNSt8_Rb_treeI4pg_tSt4pairIKS0_iESt10_Select1stIS3_ESt4lessIS0_ESaIS3_EE7_M_copyINS9_11_Alloc_nodeEEEPSt13_Rb_tree_nodeIS3_EPKSD_PSt18_Rb_tree_node_baseRT_@Base 0.87
 _ZNSt8_Rb_treeI4pg_tSt4pairIKS0_iESt10_Select1stIS3_ESt4lessIS0_ESaIS3_EE8_M_eraseEPSt13_Rb_tree_nodeIS3_E@Base 0.87
 _ZNSt8_Rb_treeI6frag_tSt4pairIKS0_iESt10_Select1stIS3_ESt4lessIS0_ESaIS3_EE24_M_get_insert_unique_posERS2_@Base 0.87
 _ZNSt8_Rb_treeI6frag_tSt4pairIKS0_iESt10_Select1stIS3_ESt4lessIS0_ESaIS3_EE29_M_get_insert_hint_unique_posESt23_Rb_tree_const_iteratorIS3_ERS2_@Base 0.87
 _ZNSt8_Rb_treeI6frag_tSt4pairIKS0_iESt10_Select1stIS3_ESt4lessIS0_ESaIS3_EE5eraseERS2_@Base 0.87
 _ZNSt8_Rb_treeI6frag_tSt4pairIKS0_iESt10_Select1stIS3_ESt4lessIS0_ESaIS3_EE7_M_copyINS9_20_Reuse_or_alloc_nodeEEEPSt13_Rb_tree_nodeIS3_EPKSD_PSt18_Rb_tree_node_baseRT_@Base 0.87
 _ZNSt8_Rb_treeI6frag_tSt4pairIKS0_iESt10_Select1stIS3_ESt4lessIS0_ESaIS3_EE8_M_eraseEPSt13_Rb_tree_nodeIS3_E@Base 0.87
 _ZNSt8_Rb_treeI8object_tS0_St9_IdentityIS0_ESt4lessIS0_ESaIS0_EE11equal_rangeERKS0_@Base 0.87
 _ZNSt8_Rb_treeI8object_tS0_St9_IdentityIS0_ESt4lessIS0_ESaIS0_EE5eraseERKS0_@Base 0.87
 _ZNSt8_Rb_treeI8object_tS0_St9_IdentityIS0_ESt4lessIS0_ESaIS0_EE8_M_eraseEPSt13_Rb_tree_nodeIS0_E@Base 0.87
 _ZNSt8_Rb_treeI8object_tSt4pairIKS0_St6vectorI12ObjectExtentSaIS4_EEESt10_Select1stIS7_ESt4lessIS0_ESaIS7_EE24_M_get_insert_unique_posERS2_@Base 0.87
 _ZNSt8_Rb_treeI8object_tSt4pairIKS0_St6vectorI12ObjectExtentSaIS4_EEESt10_Select1stIS7_ESt4lessIS0_ESaIS7_EE29_M_get_insert_hint_unique_posESt23_Rb_tree_const_iteratorIS7_ERS2_@Base 0.87
 _ZNSt8_Rb_treeI8object_tSt4pairIKS0_St6vectorI12ObjectExtentSaIS4_EEESt10_Select1stIS7_ESt4lessIS0_ESaIS7_EE8_M_eraseEPSt13_Rb_tree_nodeIS7_E@Base 0.87
 _ZNSt8_Rb_treeI8object_tSt4pairIKS0_mESt10_Select1stIS3_ESt4lessIS0_ESaIS3_EE24_M_get_insert_unique_posERS2_@Base 0.87
 _ZNSt8_Rb_treeI8object_tSt4pairIKS0_mESt10_Select1stIS3_ESt4lessIS0_ESaIS3_EE29_M_get_insert_hint_unique_posESt23_Rb_tree_const_iteratorIS3_ERS2_@Base 0.87
 _ZNSt8_Rb_treeI8object_tSt4pairIKS0_mESt10_Select1stIS3_ESt4lessIS0_ESaIS3_EE8_M_eraseEPSt13_Rb_tree_nodeIS3_E@Base 0.87
 _ZNSt8_Rb_treeI8snapid_tS0_St9_IdentityIS0_ESt4lessIS0_ESaIS0_EE16_M_insert_uniqueIRKS0_EESt4pairISt17_Rb_tree_iteratorIS0_EbEOT_@Base 0.87
 _ZNSt8_Rb_treeI8snapid_tS0_St9_IdentityIS0_ESt4lessIS0_ESaIS0_EE8_M_eraseEPSt13_Rb_tree_nodeIS0_E@Base 0.87
 _ZNSt8_Rb_treeI8snapid_tSt4pairIKS0_16pool_snap_info_tESt10_Select1stIS4_ESt4lessIS0_ESaIS4_EE7_M_copyINSA_11_Alloc_nodeEEEPSt13_Rb_tree_nodeIS4_EPKSE_PSt18_Rb_tree_node_baseRT_@Base 0.87
 _ZNSt8_Rb_treeI8snapid_tSt4pairIKS0_16pool_snap_info_tESt10_Select1stIS4_ESt4lessIS0_ESaIS4_EE8_M_eraseEPSt13_Rb_tree_nodeIS4_E@Base 0.87
 _ZNSt8_Rb_treeI8snapid_tSt4pairIKS0_P7CapSnapESt10_Select1stIS5_ESt4lessIS0_ESaIS5_EE24_M_get_insert_unique_posERS2_@Base 0.87
 _ZNSt8_Rb_treeI8snapid_tSt4pairIKS0_P7CapSnapESt10_Select1stIS5_ESt4lessIS0_ESaIS5_EE29_M_get_insert_hint_unique_posESt23_Rb_tree_const_iteratorIS5_ERS2_@Base 0.87
 _ZNSt8_Rb_treeI8snapid_tSt4pairIKS0_P7CapSnapESt10_Select1stIS5_ESt4lessIS0_ESaIS5_EE5eraseERS2_@Base 0.87
 _ZNSt8_Rb_treeI8snapid_tSt4pairIKS0_P7CapSnapESt10_Select1stIS5_ESt4lessIS0_ESaIS5_EE8_M_eraseEPSt13_Rb_tree_nodeIS5_E@Base 0.87
 _ZNSt8_Rb_treeI8snapid_tSt4pairIKS0_S0_ESt10_Select1stIS3_ESt4lessIS0_ESaIS3_EE7_M_copyINS9_11_Alloc_nodeEEEPSt13_Rb_tree_nodeIS3_EPKSD_PSt18_Rb_tree_node_baseRT_@Base 0.87
 _ZNSt8_Rb_treeI8snapid_tSt4pairIKS0_S0_ESt10_Select1stIS3_ESt4lessIS0_ESaIS3_EE8_M_eraseEPSt13_Rb_tree_nodeIS3_E@Base 0.87
 _ZNSt8_Rb_treeI9inodeno_tSt4pairIKS0_15cap_reconnect_tESt10_Select1stIS4_ESt4lessIS0_ESaIS4_EE24_M_get_insert_unique_posERS2_@Base 0.87
 _ZNSt8_Rb_treeI9inodeno_tSt4pairIKS0_15cap_reconnect_tESt10_Select1stIS4_ESt4lessIS0_ESaIS4_EE29_M_get_insert_hint_unique_posESt23_Rb_tree_const_iteratorIS4_ERS2_@Base 0.87
 _ZNSt8_Rb_treeI9inodeno_tSt4pairIKS0_15cap_reconnect_tESt10_Select1stIS4_ESt4lessIS0_ESaIS4_EE8_M_eraseEPSt13_Rb_tree_nodeIS4_E@Base 0.87
 _ZNSt8_Rb_treeI9inodeno_tSt4pairIKS0_19old_cap_reconnect_tESt10_Select1stIS4_ESt4lessIS0_ESaIS4_EE24_M_get_insert_unique_posERS2_@Base 0.87
 _ZNSt8_Rb_treeI9inodeno_tSt4pairIKS0_19old_cap_reconnect_tESt10_Select1stIS4_ESt4lessIS0_ESaIS4_EE29_M_get_insert_hint_unique_posESt23_Rb_tree_const_iteratorIS4_ERS2_@Base 0.87
 _ZNSt8_Rb_treeI9inodeno_tSt4pairIKS0_19old_cap_reconnect_tESt10_Select1stIS4_ESt4lessIS0_ESaIS4_EE8_M_eraseEPSt13_Rb_tree_nodeIS4_E@Base 0.87
 _ZNSt8_Rb_treeI9mds_gid_tSt4pairIKS0_N6MDSMap10mds_info_tEESt10_Select1stIS5_ESt4lessIS0_ESaIS5_EE24_M_get_insert_unique_posERS2_@Base 0.87
 _ZNSt8_Rb_treeI9mds_gid_tSt4pairIKS0_N6MDSMap10mds_info_tEESt10_Select1stIS5_ESt4lessIS0_ESaIS5_EE29_M_get_insert_hint_unique_posESt23_Rb_tree_const_iteratorIS5_ERS2_@Base 0.87
 _ZNSt8_Rb_treeI9mds_gid_tSt4pairIKS0_N6MDSMap10mds_info_tEESt10_Select1stIS5_ESt4lessIS0_ESaIS5_EE7_M_copyINSB_11_Alloc_nodeEEEPSt13_Rb_tree_nodeIS5_EPKSF_PSt18_Rb_tree_node_baseRT_@Base 0.87
 _ZNSt8_Rb_treeI9mds_gid_tSt4pairIKS0_N6MDSMap10mds_info_tEESt10_Select1stIS5_ESt4lessIS0_ESaIS5_EE7_M_copyINSB_20_Reuse_or_alloc_nodeEEEPSt13_Rb_tree_nodeIS5_EPKSF_PSt18_Rb_tree_node_baseRT_@Base 0.87
 _ZNSt8_Rb_treeI9mds_gid_tSt4pairIKS0_N6MDSMap10mds_info_tEESt10_Select1stIS5_ESt4lessIS0_ESaIS5_EE8_M_eraseEPSt13_Rb_tree_nodeIS5_E@Base 0.87
 _ZNSt8_Rb_treeI9mds_gid_tSt4pairIKS0_iESt10_Select1stIS3_ESt4lessIS0_ESaIS3_EE7_M_copyINS9_20_Reuse_or_alloc_nodeEEEPSt13_Rb_tree_nodeIS3_EPKSD_PSt18_Rb_tree_node_baseRT_@Base 0.87
 _ZNSt8_Rb_treeI9mds_gid_tSt4pairIKS0_iESt10_Select1stIS3_ESt4lessIS0_ESaIS3_EE8_M_eraseEPSt13_Rb_tree_nodeIS3_E@Base 0.87
 _ZNSt8_Rb_treeI9mds_gid_tSt4pairIKS0_jESt10_Select1stIS3_ESt4lessIS0_ESaIS3_EE7_M_copyINS9_20_Reuse_or_alloc_nodeEEEPSt13_Rb_tree_nodeIS3_EPKSD_PSt18_Rb_tree_node_baseRT_@Base 0.87
 _ZNSt8_Rb_treeI9mds_gid_tSt4pairIKS0_jESt10_Select1stIS3_ESt4lessIS0_ESaIS3_EE8_M_eraseEPSt13_Rb_tree_nodeIS3_E@Base 0.87
 _ZNSt8_Rb_treeIN11pool_opts_t5key_tESt4pairIKS1_N5boost7variantINSt7__cxx1112basic_stringIcSt11char_traitsIcESaIcEEEJidEEEESt10_Select1stISD_ESt4lessIS1_ESaISD_EE7_M_copyINSJ_11_Alloc_nodeEEEPSt13_Rb_tree_nodeISD_EPKSN_PSt18_Rb_tree_node_baseRT_@Base 0.87
 _ZNSt8_Rb_treeIN11pool_opts_t5key_tESt4pairIKS1_N5boost7variantINSt7__cxx1112basic_stringIcSt11char_traitsIcESaIcEEEJidEEEESt10_Select1stISD_ESt4lessIS1_ESaISD_EE8_M_eraseEPSt13_Rb_tree_nodeISD_E@Base 0.87
 _ZNSt8_Rb_treeINSt7__cxx1112basic_stringIcSt11char_traitsIcESaIcEEESt4pairIKS5_11pool_stat_tESt10_Select1stIS9_ESt4lessIS5_ESaIS9_EE7_M_copyINSF_20_Reuse_or_alloc_nodeEEEPSt13_Rb_tree_nodeIS9_EPKSJ_PSt18_Rb_tree_node_baseRT_@Base 0.87
 _ZNSt8_Rb_treeINSt7__cxx1112basic_stringIcSt11char_traitsIcESaIcEEESt4pairIKS5_11pool_stat_tESt10_Select1stIS9_ESt4lessIS5_ESaIS9_EE8_M_eraseEPSt13_Rb_tree_nodeIS9_E@Base 0.87
 _ZNSt8_Rb_treeINSt7__cxx1112basic_stringIcSt11char_traitsIcESaIcEEESt4pairIKS5_23ceph_mon_subscribe_itemESt10_Select1stIS9_ESt4lessIS5_ESaIS9_EE11equal_rangeERS7_@Base 0.87
 _ZNSt8_Rb_treeINSt7__cxx1112basic_stringIcSt11char_traitsIcESaIcEEESt4pairIKS5_23ceph_mon_subscribe_itemESt10_Select1stIS9_ESt4lessIS5_ESaIS9_EE24_M_get_insert_unique_posERS7_@Base 0.87
 _ZNSt8_Rb_treeINSt7__cxx1112basic_stringIcSt11char_traitsIcESaIcEEESt4pairIKS5_23ceph_mon_subscribe_itemESt10_Select1stIS9_ESt4lessIS5_ESaIS9_EE29_M_get_insert_hint_unique_posESt23_Rb_tree_const_iteratorIS9_ERS7_@Base 0.87
 _ZNSt8_Rb_treeINSt7__cxx1112basic_stringIcSt11char_traitsIcESaIcEEESt4pairIKS5_23ceph_mon_subscribe_itemESt10_Select1stIS9_ESt4lessIS5_ESaIS9_EE5eraseERS7_@Base 0.87
 _ZNSt8_Rb_treeINSt7__cxx1112basic_stringIcSt11char_traitsIcESaIcEEESt4pairIKS5_23ceph_mon_subscribe_itemESt10_Select1stIS9_ESt4lessIS5_ESaIS9_EE8_M_eraseEPSt13_Rb_tree_nodeIS9_E@Base 0.87
 _ZNSt8_Rb_treeINSt7__cxx1112basic_stringIcSt11char_traitsIcESaIcEEESt4pairIKS5_N4ceph6buffer3ptrEESt10_Select1stISB_ESt4lessIS5_ESaISB_EE14_M_insert_nodeEPSt18_Rb_tree_node_baseSJ_PSt13_Rb_tree_nodeISB_E@Base 0.87
 _ZNSt8_Rb_treeINSt7__cxx1112basic_stringIcSt11char_traitsIcESaIcEEESt4pairIKS5_N4ceph6buffer3ptrEESt10_Select1stISB_ESt4lessIS5_ESaISB_EE24_M_get_insert_unique_posERS7_@Base 0.87
 _ZNSt8_Rb_treeINSt7__cxx1112basic_stringIcSt11char_traitsIcESaIcEEESt4pairIKS5_N4ceph6buffer3ptrEESt10_Select1stISB_ESt4lessIS5_ESaISB_EE29_M_get_insert_hint_unique_posESt23_Rb_tree_const_iteratorISB_ERS7_@Base 0.87
 _ZNSt8_Rb_treeINSt7__cxx1112basic_stringIcSt11char_traitsIcESaIcEEESt4pairIKS5_N4ceph6buffer3ptrEESt10_Select1stISB_ESt4lessIS5_ESaISB_EE7_M_copyINSH_20_Reuse_or_alloc_nodeEEEPSt13_Rb_tree_nodeISB_EPKSL_PSt18_Rb_tree_node_baseRT_@Base 0.87
 _ZNSt8_Rb_treeINSt7__cxx1112basic_stringIcSt11char_traitsIcESaIcEEESt4pairIKS5_N4ceph6buffer3ptrEESt10_Select1stISB_ESt4lessIS5_ESaISB_EE8_M_eraseEPSt13_Rb_tree_nodeISB_E@Base 0.87
 _ZNSt8_Rb_treeINSt7__cxx1112basic_stringIcSt11char_traitsIcESaIcEEESt4pairIKS5_N4ceph6buffer4listEESt10_Select1stISB_ESt4lessIS5_ESaISB_EE7_M_copyINSH_11_Alloc_nodeEEEPSt13_Rb_tree_nodeISB_EPKSL_PSt18_Rb_tree_node_baseRT_@Base 0.87
 _ZNSt8_Rb_treeINSt7__cxx1112basic_stringIcSt11char_traitsIcESaIcEEESt4pairIKS5_N4ceph6buffer4listEESt10_Select1stISB_ESt4lessIS5_ESaISB_EE8_M_eraseEPSt13_Rb_tree_nodeISB_E@Base 0.87
 _ZNSt8_Rb_treeINSt7__cxx1112basic_stringIcSt11char_traitsIcESaIcEEESt4pairIKS5_S5_ESt10_Select1stIS8_ESt4lessIS5_ESaIS8_EE14_M_insert_nodeEPSt18_Rb_tree_node_baseSG_PSt13_Rb_tree_nodeIS8_E@Base 0.87
 _ZNSt8_Rb_treeINSt7__cxx1112basic_stringIcSt11char_traitsIcESaIcEEESt4pairIKS5_S5_ESt10_Select1stIS8_ESt4lessIS5_ESaIS8_EE24_M_get_insert_unique_posERS7_@Base 0.87
 _ZNSt8_Rb_treeINSt7__cxx1112basic_stringIcSt11char_traitsIcESaIcEEESt4pairIKS5_S5_ESt10_Select1stIS8_ESt4lessIS5_ESaIS8_EE29_M_get_insert_hint_unique_posESt23_Rb_tree_const_iteratorIS8_ERS7_@Base 0.87
 _ZNSt8_Rb_treeINSt7__cxx1112basic_stringIcSt11char_traitsIcESaIcEEESt4pairIKS5_S5_ESt10_Select1stIS8_ESt4lessIS5_ESaIS8_EE7_M_copyINSE_11_Alloc_nodeEEEPSt13_Rb_tree_nodeIS8_EPKSI_PSt18_Rb_tree_node_baseRT_@Base 0.87
 _ZNSt8_Rb_treeINSt7__cxx1112basic_stringIcSt11char_traitsIcESaIcEEESt4pairIKS5_S5_ESt10_Select1stIS8_ESt4lessIS5_ESaIS8_EE7_M_copyINSE_20_Reuse_or_alloc_nodeEEEPSt13_Rb_tree_nodeIS8_EPKSI_PSt18_Rb_tree_node_baseRT_@Base 0.87
 _ZNSt8_Rb_treeINSt7__cxx1112basic_stringIcSt11char_traitsIcESaIcEEESt4pairIKS5_S5_ESt10_Select1stIS8_ESt4lessIS5_ESaIS8_EE8_M_eraseEPSt13_Rb_tree_nodeIS8_E@Base 0.87
 _ZNSt8_Rb_treeINSt7__cxx1112basic_stringIcSt11char_traitsIcESaIcEEESt4pairIKS5_St3mapIS5_S5_St4lessIS5_ESaIS6_IS7_S5_EEEESt10_Select1stISE_ESA_SaISE_EE7_M_copyINSI_20_Reuse_or_alloc_nodeEEEPSt13_Rb_tree_nodeISE_EPKSM_PSt18_Rb_tree_node_baseRT_@Base 0.87
 _ZNSt8_Rb_treeINSt7__cxx1112basic_stringIcSt11char_traitsIcESaIcEEESt4pairIKS5_St3mapIS5_S5_St4lessIS5_ESaIS6_IS7_S5_EEEESt10_Select1stISE_ESA_SaISE_EE8_M_eraseEPSt13_Rb_tree_nodeISE_E@Base 0.87
 _ZNSt8_Rb_treeINSt7__cxx1112basic_stringIcSt11char_traitsIcESaIcEEESt4pairIKS5_iESt10_Select1stIS8_ESt4lessIS5_ESaIS8_EE8_M_eraseEPSt13_Rb_tree_nodeIS8_E@Base 0.87
 _ZNSt8_Rb_treeINSt7__cxx1112basic_stringIcSt11char_traitsIcESaIcEEESt4pairIKS5_lESt10_Select1stIS8_ESt4lessIS5_ESaIS8_EE7_M_copyINSE_20_Reuse_or_alloc_nodeEEEPSt13_Rb_tree_nodeIS8_EPKSI_PSt18_Rb_tree_node_baseRT_@Base 0.87
 _ZNSt8_Rb_treeINSt7__cxx1112basic_stringIcSt11char_traitsIcESaIcEEESt4pairIKS5_lESt10_Select1stIS8_ESt4lessIS5_ESaIS8_EE8_M_eraseEPSt13_Rb_tree_nodeIS8_E@Base 0.87
 _ZNSt8_Rb_treeIP2FhS1_St9_IdentityIS1_ESt4lessIS1_ESaIS1_EE16_M_insert_uniqueIRKS1_EESt4pairISt17_Rb_tree_iteratorIS1_EbEOT_@Base 0.87
 _ZNSt8_Rb_treeIP2FhS1_St9_IdentityIS1_ESt4lessIS1_ESaIS1_EE5eraseERKS1_@Base 0.87
 _ZNSt8_Rb_treeIP2FhS1_St9_IdentityIS1_ESt4lessIS1_ESaIS1_EE8_M_eraseEPSt13_Rb_tree_nodeIS1_E@Base 0.87
 _ZNSt8_Rb_treeIP5InodeS1_St9_IdentityIS1_ESt4lessIS1_ESaIS1_EE16_M_insert_uniqueIRKS1_EESt4pairISt17_Rb_tree_iteratorIS1_EbEOT_@Base 0.87
 _ZNSt8_Rb_treeIP5InodeS1_St9_IdentityIS1_ESt4lessIS1_ESaIS1_EE8_M_eraseEPSt13_Rb_tree_nodeIS1_E@Base 0.87
 _ZNSt8_Rb_treeIP5InodeSt4pairIKS1_11SnapContextESt10_Select1stIS5_ESt4lessIS1_ESaIS5_EE24_M_get_insert_unique_posERS3_@Base 0.87
 _ZNSt8_Rb_treeIP5InodeSt4pairIKS1_11SnapContextESt10_Select1stIS5_ESt4lessIS1_ESaIS5_EE29_M_get_insert_hint_unique_posESt23_Rb_tree_const_iteratorIS5_ERS3_@Base 0.87
 _ZNSt8_Rb_treeIP5InodeSt4pairIKS1_11SnapContextESt10_Select1stIS5_ESt4lessIS1_ESaIS5_EE8_M_eraseEPSt13_Rb_tree_nodeIS5_E@Base 0.87
 _ZNSt8_Rb_treeIP5InodeSt4pairIKS1_N5boost13intrusive_ptrIS0_EEESt10_Select1stIS7_ESt4lessIS1_ESaIS7_EE12_M_erase_auxESt23_Rb_tree_const_iteratorIS7_E@Base 0.87
 _ZNSt8_Rb_treeIP5InodeSt4pairIKS1_N5boost13intrusive_ptrIS0_EEESt10_Select1stIS7_ESt4lessIS1_ESaIS7_EE24_M_get_insert_unique_posERS3_@Base 0.87
 _ZNSt8_Rb_treeIP5InodeSt4pairIKS1_N5boost13intrusive_ptrIS0_EEESt10_Select1stIS7_ESt4lessIS1_ESaIS7_EE29_M_get_insert_hint_unique_posESt23_Rb_tree_const_iteratorIS7_ERS3_@Base 0.87
 _ZNSt8_Rb_treeIP5InodeSt4pairIKS1_N5boost13intrusive_ptrIS0_EEESt10_Select1stIS7_ESt4lessIS1_ESaIS7_EE8_M_eraseEPSt13_Rb_tree_nodeIS7_E@Base 0.87
 _ZNSt8_Rb_treeIP6DentryS1_St9_IdentityIS1_ESt4lessIS1_ESaIS1_EE16_M_insert_uniqueIRKS1_EESt4pairISt17_Rb_tree_iteratorIS1_EbEOT_@Base 0.87
 _ZNSt8_Rb_treeIP6DentryS1_St9_IdentityIS1_ESt4lessIS1_ESaIS1_EE5eraseERKS1_@Base 0.87
 _ZNSt8_Rb_treeIP6DentryS1_St9_IdentityIS1_ESt4lessIS1_ESaIS1_EE8_M_eraseEPSt13_Rb_tree_nodeIS1_E@Base 0.87
 _ZNSt8_Rb_treeIP7ContextS1_St9_IdentityIS1_ESt4lessIS1_ESaIS1_EE16_M_insert_uniqueIRKS1_EESt4pairISt17_Rb_tree_iteratorIS1_EbEOT_@Base 0.87
 _ZNSt8_Rb_treeIP7ContextS1_St9_IdentityIS1_ESt4lessIS1_ESaIS1_EE5eraseERKS1_@Base 0.87
 _ZNSt8_Rb_treeIP7ContextS1_St9_IdentityIS1_ESt4lessIS1_ESaIS1_EE8_M_eraseEPSt13_Rb_tree_nodeIS1_E@Base 0.87
 _ZNSt8_Rb_treeIP9SnapRealmS1_St9_IdentityIS1_ESt4lessIS1_ESaIS1_EE16_M_insert_uniqueIRKS1_EESt4pairISt17_Rb_tree_iteratorIS1_EbEOT_@Base 0.87
 _ZNSt8_Rb_treeIP9SnapRealmS1_St9_IdentityIS1_ESt4lessIS1_ESaIS1_EE5eraseERKS1_@Base 0.87
 _ZNSt8_Rb_treeIP9SnapRealmS1_St9_IdentityIS1_ESt4lessIS1_ESaIS1_EE8_M_eraseEPSt13_Rb_tree_nodeIS1_E@Base 0.87
 _ZNSt8_Rb_treeIP9SnapRealmSt4pairIKS1_11SnapContextESt10_Select1stIS5_ESt4lessIS1_ESaIS5_EE24_M_get_insert_unique_posERS3_@Base 0.87
 _ZNSt8_Rb_treeIP9SnapRealmSt4pairIKS1_11SnapContextESt10_Select1stIS5_ESt4lessIS1_ESaIS5_EE29_M_get_insert_hint_unique_posESt23_Rb_tree_const_iteratorIS5_ERS3_@Base 0.87
 _ZNSt8_Rb_treeIP9SnapRealmSt4pairIKS1_11SnapContextESt10_Select1stIS5_ESt4lessIS1_ESaIS5_EE8_M_eraseEPSt13_Rb_tree_nodeIS5_E@Base 0.87
 _ZNSt8_Rb_treeIPN12ObjectCacher10BufferHeadES2_St9_IdentityIS2_ENS1_6ptr_ltESaIS2_EE11equal_rangeERKS2_@Base 0.87
 _ZNSt8_Rb_treeIPN12ObjectCacher10BufferHeadES2_St9_IdentityIS2_ENS1_6ptr_ltESaIS2_EE16_M_insert_uniqueIRKS2_EESt4pairISt17_Rb_tree_iteratorIS2_EbEOT_@Base 0.87
 _ZNSt8_Rb_treeIPN12ObjectCacher10BufferHeadES2_St9_IdentityIS2_ENS1_6ptr_ltESaIS2_EE5eraseERKS2_@Base 0.87
 _ZNSt8_Rb_treeIPN12ObjectCacher10BufferHeadES2_St9_IdentityIS2_ENS1_6ptr_ltESaIS2_EE8_M_eraseEPSt13_Rb_tree_nodeIS2_E@Base 0.87
 _ZNSt8_Rb_treeIPN12ObjectCacher6ObjectES2_St9_IdentityIS2_ESt4lessIS2_ESaIS2_EE16_M_insert_uniqueIRKS2_EESt4pairISt17_Rb_tree_iteratorIS2_EbEOT_@Base 0.87
 _ZNSt8_Rb_treeIPN12ObjectCacher6ObjectES2_St9_IdentityIS2_ESt4lessIS2_ESaIS2_EE8_M_eraseEPSt13_Rb_tree_nodeIS2_E@Base 0.87
 _ZNSt8_Rb_treeIPN8Objecter10OSDSessionES2_St9_IdentityIS2_ESt4lessIS2_ESaIS2_EE16_M_insert_uniqueIRKS2_EESt4pairISt17_Rb_tree_iteratorIS2_EbEOT_@Base 0.87
 _ZNSt8_Rb_treeIPN8Objecter10OSDSessionES2_St9_IdentityIS2_ESt4lessIS2_ESaIS2_EE8_M_eraseEPSt13_Rb_tree_nodeIS2_E@Base 0.87
 _ZNSt8_Rb_treeIPN8Objecter8LingerOpES2_St9_IdentityIS2_ESt4lessIS2_ESaIS2_EE16_M_insert_uniqueIRKS2_EESt4pairISt17_Rb_tree_iteratorIS2_EbEOT_@Base 0.87
 _ZNSt8_Rb_treeIPN8Objecter8LingerOpES2_St9_IdentityIS2_ESt4lessIS2_ESaIS2_EE5eraseERKS2_@Base 0.87
 _ZNSt8_Rb_treeIPN8Objecter8LingerOpES2_St9_IdentityIS2_ESt4lessIS2_ESaIS2_EE8_M_eraseEPSt13_Rb_tree_nodeIS2_E@Base 0.87
 _ZNSt8_Rb_treeISt4pairIlNSt7__cxx1112basic_stringIcSt11char_traitsIcESaIcEEEES0_IKS7_iESt10_Select1stIS9_ESt4lessIS7_ESaIS9_EE11equal_rangeERS8_@Base 0.87
 _ZNSt8_Rb_treeISt4pairIlNSt7__cxx1112basic_stringIcSt11char_traitsIcESaIcEEEES0_IKS7_iESt10_Select1stIS9_ESt4lessIS7_ESaIS9_EE24_M_get_insert_unique_posERS8_@Base 0.87
 _ZNSt8_Rb_treeISt4pairIlNSt7__cxx1112basic_stringIcSt11char_traitsIcESaIcEEEES0_IKS7_iESt10_Select1stIS9_ESt4lessIS7_ESaIS9_EE29_M_get_insert_hint_unique_posESt23_Rb_tree_const_iteratorIS9_ERS8_@Base 0.87
 _ZNSt8_Rb_treeISt4pairIlNSt7__cxx1112basic_stringIcSt11char_traitsIcESaIcEEEES0_IKS7_iESt10_Select1stIS9_ESt4lessIS7_ESaIS9_EE5eraseERS8_@Base 0.87
 _ZNSt8_Rb_treeISt4pairIlNSt7__cxx1112basic_stringIcSt11char_traitsIcESaIcEEEES0_IKS7_iESt10_Select1stIS9_ESt4lessIS7_ESaIS9_EE8_M_eraseEPSt13_Rb_tree_nodeIS9_E@Base 0.87
 _ZNSt8_Rb_treeIiSt4pairIKi11osd_xinfo_tESt10_Select1stIS3_ESt4lessIiESaIS3_EE8_M_eraseEPSt13_Rb_tree_nodeIS3_E@Base 0.87
 _ZNSt8_Rb_treeIiSt4pairIKi13entity_addr_tESt10_Select1stIS3_ESt4lessIiESaIS3_EE8_M_eraseEPSt13_Rb_tree_nodeIS3_E@Base 0.87
 _ZNSt8_Rb_treeIiSt4pairIKi13entity_inst_tESt10_Select1stIS3_ESt4lessIiESaIS3_EE24_M_get_insert_unique_posERS1_@Base 0.87
 _ZNSt8_Rb_treeIiSt4pairIKi13entity_inst_tESt10_Select1stIS3_ESt4lessIiESaIS3_EE29_M_get_insert_hint_unique_posESt23_Rb_tree_const_iteratorIS3_ERS1_@Base 0.87
 _ZNSt8_Rb_treeIiSt4pairIKi13entity_inst_tESt10_Select1stIS3_ESt4lessIiESaIS3_EE5eraseERS1_@Base 0.87
 _ZNSt8_Rb_treeIiSt4pairIKi13entity_inst_tESt10_Select1stIS3_ESt4lessIiESaIS3_EE8_M_eraseEPSt13_Rb_tree_nodeIS3_E@Base 0.87
 _ZNSt8_Rb_treeIiSt4pairIKi6uuid_dESt10_Select1stIS3_ESt4lessIiESaIS3_EE8_M_eraseEPSt13_Rb_tree_nodeIS3_E@Base 0.87
 _ZNSt8_Rb_treeIiSt4pairIKi9mds_gid_tESt10_Select1stIS3_ESt4lessIiESaIS3_EE24_M_get_insert_unique_posERS1_@Base 0.87
 _ZNSt8_Rb_treeIiSt4pairIKi9mds_gid_tESt10_Select1stIS3_ESt4lessIiESaIS3_EE29_M_get_insert_hint_unique_posESt23_Rb_tree_const_iteratorIS3_ERS1_@Base 0.87
 _ZNSt8_Rb_treeIiSt4pairIKi9mds_gid_tESt10_Select1stIS3_ESt4lessIiESaIS3_EE7_M_copyINS9_11_Alloc_nodeEEEPSt13_Rb_tree_nodeIS3_EPKSD_PSt18_Rb_tree_node_baseRT_@Base 0.87
 _ZNSt8_Rb_treeIiSt4pairIKi9mds_gid_tESt10_Select1stIS3_ESt4lessIiESaIS3_EE8_M_eraseEPSt13_Rb_tree_nodeIS3_E@Base 0.87
 _ZNSt8_Rb_treeIiSt4pairIKiN8librados12shard_info_tEESt10_Select1stIS4_ESt4lessIiESaIS4_EE7_M_copyINSA_11_Alloc_nodeEEEPSt13_Rb_tree_nodeIS4_EPKSE_PSt18_Rb_tree_node_baseRT_@Base 0.87
 _ZNSt8_Rb_treeIiSt4pairIKiN8librados12shard_info_tEESt10_Select1stIS4_ESt4lessIiESaIS4_EE8_M_eraseEPSt13_Rb_tree_nodeIS4_E@Base 0.87
 _ZNSt8_Rb_treeIiSt4pairIKiNSt7__cxx1112basic_stringIcSt11char_traitsIcESaIcEEEESt10_Select1stIS8_ESt4lessIiESaIS8_EE8_M_eraseEPSt13_Rb_tree_nodeIS8_E@Base 0.87
 _ZNSt8_Rb_treeIiSt4pairIKiP11MetaSessionESt10_Select1stIS4_ESt4lessIiESaIS4_EE24_M_get_insert_unique_posERS1_@Base 0.87
 _ZNSt8_Rb_treeIiSt4pairIKiP11MetaSessionESt10_Select1stIS4_ESt4lessIiESaIS4_EE29_M_get_insert_hint_unique_posESt23_Rb_tree_const_iteratorIS4_ERS1_@Base 0.87
 _ZNSt8_Rb_treeIiSt4pairIKiP11MetaSessionESt10_Select1stIS4_ESt4lessIiESaIS4_EE8_M_eraseEPSt13_Rb_tree_nodeIS4_E@Base 0.87
 _ZNSt8_Rb_treeIiSt4pairIKiP3CapESt10_Select1stIS4_ESt4lessIiESaIS4_EE24_M_get_insert_unique_posERS1_@Base 0.87
 _ZNSt8_Rb_treeIiSt4pairIKiP3CapESt10_Select1stIS4_ESt4lessIiESaIS4_EE29_M_get_insert_hint_unique_posESt23_Rb_tree_const_iteratorIS4_ERS1_@Base 0.87
 _ZNSt8_Rb_treeIiSt4pairIKiP3CapESt10_Select1stIS4_ESt4lessIiESaIS4_EE5eraseERS1_@Base 0.87
 _ZNSt8_Rb_treeIiSt4pairIKiP3CapESt10_Select1stIS4_ESt4lessIiESaIS4_EE8_M_eraseEPSt13_Rb_tree_nodeIS4_E@Base 0.87
 _ZNSt8_Rb_treeIiSt4pairIKiPN8Objecter10OSDSessionEESt10_Select1stIS5_ESt4lessIiESaIS5_EE24_M_get_insert_unique_posERS1_@Base 0.87
 _ZNSt8_Rb_treeIiSt4pairIKiPN8Objecter10OSDSessionEESt10_Select1stIS5_ESt4lessIiESaIS5_EE29_M_get_insert_hint_unique_posESt23_Rb_tree_const_iteratorIS5_ERS1_@Base 0.87
 _ZNSt8_Rb_treeIiSt4pairIKiPN8Objecter10OSDSessionEESt10_Select1stIS5_ESt4lessIiESaIS5_EE5eraseERS1_@Base 0.87
 _ZNSt8_Rb_treeIiSt4pairIKiPN8Objecter10OSDSessionEESt10_Select1stIS5_ESt4lessIiESaIS5_EE8_M_eraseEPSt13_Rb_tree_nodeIS5_E@Base 0.87
 _ZNSt8_Rb_treeIiSt4pairIKiS0_IjjEESt10_Select1stIS3_ESt4lessIiESaIS3_EE8_M_eraseEPSt13_Rb_tree_nodeIS3_E@Base 0.87
 _ZNSt8_Rb_treeIiSt4pairIKiSt10shared_ptrI10FilesystemEESt10_Select1stIS5_ESt4lessIiESaIS5_EE24_M_get_insert_unique_posERS1_@Base 0.87
 _ZNSt8_Rb_treeIiSt4pairIKiSt10shared_ptrI10FilesystemEESt10_Select1stIS5_ESt4lessIiESaIS5_EE29_M_get_insert_hint_unique_posESt23_Rb_tree_const_iteratorIS5_ERS1_@Base 0.87
 _ZNSt8_Rb_treeIiSt4pairIKiSt10shared_ptrI10FilesystemEESt10_Select1stIS5_ESt4lessIiESaIS5_EE8_M_eraseEPSt13_Rb_tree_nodeIS5_E@Base 0.87
 _ZNSt8_Rb_treeIiSt4pairIKihESt10_Select1stIS2_ESt4lessIiESaIS2_EE8_M_eraseEPSt13_Rb_tree_nodeIS2_E@Base 0.87
 _ZNSt8_Rb_treeIiSt4pairIKiiESt10_Select1stIS2_ESt4lessIiESaIS2_EE12_M_erase_auxESt23_Rb_tree_const_iteratorIS2_E@Base 0.87
 _ZNSt8_Rb_treeIiSt4pairIKiiESt10_Select1stIS2_ESt4lessIiESaIS2_EE14_M_insert_nodeEPSt18_Rb_tree_node_baseSA_PSt13_Rb_tree_nodeIS2_E@Base 0.87
 _ZNSt8_Rb_treeIiSt4pairIKiiESt10_Select1stIS2_ESt4lessIiESaIS2_EE24_M_get_insert_unique_posERS1_@Base 0.87
 _ZNSt8_Rb_treeIiSt4pairIKiiESt10_Select1stIS2_ESt4lessIiESaIS2_EE29_M_get_insert_hint_unique_posESt23_Rb_tree_const_iteratorIS2_ERS1_@Base 0.87
 _ZNSt8_Rb_treeIiSt4pairIKiiESt10_Select1stIS2_ESt4lessIiESaIS2_EE8_M_eraseEPSt13_Rb_tree_nodeIS2_E@Base 0.87
 _ZNSt8_Rb_treeIiSt4pairIKijESt10_Select1stIS2_ESt4lessIiESaIS2_EE8_M_eraseEPSt13_Rb_tree_nodeIS2_E@Base 0.87
 _ZNSt8_Rb_treeIiiSt9_IdentityIiESt4lessIiESaIiEE16_M_insert_uniqueIRKiEESt4pairISt17_Rb_tree_iteratorIiEbEOT_@Base 0.87
 _ZNSt8_Rb_treeIiiSt9_IdentityIiESt4lessIiESaIiEE7_M_copyINS5_11_Alloc_nodeEEEPSt13_Rb_tree_nodeIiEPKS9_PSt18_Rb_tree_node_baseRT_@Base 0.87
 _ZNSt8_Rb_treeIiiSt9_IdentityIiESt4lessIiESaIiEE7_M_copyINS5_20_Reuse_or_alloc_nodeEEEPSt13_Rb_tree_nodeIiEPKS9_PSt18_Rb_tree_node_baseRT_@Base 0.87
 _ZNSt8_Rb_treeIiiSt9_IdentityIiESt4lessIiESaIiEE8_M_eraseEPSt13_Rb_tree_nodeIiE@Base 0.87
 _ZNSt8_Rb_treeIiiSt9_IdentityIiESt4lessIiESaIiEEaSERKS5_@Base 0.87
 _ZNSt8_Rb_treeIjSt4pairIKjN4ceph6buffer4listEESt10_Select1stIS5_ESt4lessIjESaIS5_EE14_M_insert_nodeEPSt18_Rb_tree_node_baseSD_PSt13_Rb_tree_nodeIS5_E@Base 0.87
 _ZNSt8_Rb_treeIjSt4pairIKjN4ceph6buffer4listEESt10_Select1stIS5_ESt4lessIjESaIS5_EE24_M_get_insert_unique_posERS1_@Base 0.87
 _ZNSt8_Rb_treeIjSt4pairIKjN4ceph6buffer4listEESt10_Select1stIS5_ESt4lessIjESaIS5_EE29_M_get_insert_hint_unique_posESt23_Rb_tree_const_iteratorIS5_ERS1_@Base 0.87
 _ZNSt8_Rb_treeIjSt4pairIKjNSt7__cxx114listIS0_IP7ContextiESaIS6_EEEESt10_Select1stIS9_ESt4lessIjESaIS9_EE14_M_insert_nodeEPSt18_Rb_tree_node_baseSH_PSt13_Rb_tree_nodeIS9_E@Base 0.87
 _ZNSt8_Rb_treeIjSt4pairIKjNSt7__cxx114listIS0_IP7ContextiESaIS6_EEEESt10_Select1stIS9_ESt4lessIjESaIS9_EE24_M_get_insert_unique_posERS1_@Base 0.87
 _ZNSt8_Rb_treeIjSt4pairIKjNSt7__cxx114listIS0_IP7ContextiESaIS6_EEEESt10_Select1stIS9_ESt4lessIjESaIS9_EE29_M_get_insert_hint_unique_posESt23_Rb_tree_const_iteratorIS9_ERS1_@Base 0.87
 _ZNSt8_Rb_treeIjSt4pairIKjNSt7__cxx114listIS0_IP7ContextiESaIS6_EEEESt10_Select1stIS9_ESt4lessIjESaIS9_EE8_M_eraseEPSt13_Rb_tree_nodeIS9_E@Base 0.87
 _ZNSt8_Rb_treeIlSt4pairIKl9pg_pool_tESt10_Select1stIS3_ESt4lessIlESaIS3_EE7_M_copyINS9_20_Reuse_or_alloc_nodeEEEPSt13_Rb_tree_nodeIS3_EPKSD_PSt18_Rb_tree_node_baseRT_@Base 0.87
 _ZNSt8_Rb_treeIlSt4pairIKl9pg_pool_tESt10_Select1stIS3_ESt4lessIlESaIS3_EE8_M_eraseEPSt13_Rb_tree_nodeIS3_E@Base 0.87
 _ZNSt8_Rb_treeIlSt4pairIKlNSt7__cxx1112basic_stringIcSt11char_traitsIcESaIcEEEESt10_Select1stIS8_ESt4lessIlESaIS8_EE7_M_copyINSE_20_Reuse_or_alloc_nodeEEEPSt13_Rb_tree_nodeIS8_EPKSI_PSt18_Rb_tree_node_baseRT_@Base 0.87
 _ZNSt8_Rb_treeIlSt4pairIKlNSt7__cxx1112basic_stringIcSt11char_traitsIcESaIcEEEESt10_Select1stIS8_ESt4lessIlESaIS8_EE8_M_eraseEPSt13_Rb_tree_nodeIS8_E@Base 0.87
 _ZNSt8_Rb_treeIlSt4pairIKlNSt7__cxx114listIP7ContextSaIS5_EEEESt10_Select1stIS8_ESt4lessIlESaIS8_EE24_M_get_insert_unique_posERS1_@Base 0.87
 _ZNSt8_Rb_treeIlSt4pairIKlNSt7__cxx114listIP7ContextSaIS5_EEEESt10_Select1stIS8_ESt4lessIlESaIS8_EE29_M_get_insert_hint_unique_posESt23_Rb_tree_const_iteratorIS8_ERS1_@Base 0.87
 _ZNSt8_Rb_treeIlSt4pairIKlNSt7__cxx114listIP7ContextSaIS5_EEEESt10_Select1stIS8_ESt4lessIlESaIS8_EE8_M_eraseEPSt13_Rb_tree_nodeIS8_E@Base 0.87
 _ZNSt8_Rb_treeIlSt4pairIKlPN12ObjectCacher10BufferHeadEESt10_Select1stIS5_ESt4lessIlESaIS5_EE14_M_insert_nodeEPSt18_Rb_tree_node_baseSD_PSt13_Rb_tree_nodeIS5_E@Base 0.87
 _ZNSt8_Rb_treeIlSt4pairIKlPN12ObjectCacher10BufferHeadEESt10_Select1stIS5_ESt4lessIlESaIS5_EE16_M_insert_uniqueISt17_Rb_tree_iteratorIS5_EEEvT_SF_@Base 0.87
 _ZNSt8_Rb_treeIlSt4pairIKlPN12ObjectCacher10BufferHeadEESt10_Select1stIS5_ESt4lessIlESaIS5_EE24_M_get_insert_unique_posERS1_@Base 0.87
 _ZNSt8_Rb_treeIlSt4pairIKlPN12ObjectCacher10BufferHeadEESt10_Select1stIS5_ESt4lessIlESaIS5_EE29_M_get_insert_hint_unique_posESt23_Rb_tree_const_iteratorIS5_ERS1_@Base 0.87
 _ZNSt8_Rb_treeIlSt4pairIKlPN12ObjectCacher10BufferHeadEESt10_Select1stIS5_ESt4lessIlESaIS5_EE5eraseERS1_@Base 0.87
 _ZNSt8_Rb_treeIlSt4pairIKlPN12ObjectCacher10BufferHeadEESt10_Select1stIS5_ESt4lessIlESaIS5_EE8_M_eraseEPSt13_Rb_tree_nodeIS5_E@Base 0.87
 _ZNSt8_Rb_treeIlSt4pairIKlbESt10_Select1stIS2_ESt4lessIlESaIS2_EE14_M_insert_nodeEPSt18_Rb_tree_node_baseSA_PSt13_Rb_tree_nodeIS2_E@Base 0.87
 _ZNSt8_Rb_treeIlSt4pairIKlbESt10_Select1stIS2_ESt4lessIlESaIS2_EE24_M_get_insert_unique_posERS1_@Base 0.87
 _ZNSt8_Rb_treeIlSt4pairIKlbESt10_Select1stIS2_ESt4lessIlESaIS2_EE29_M_get_insert_hint_unique_posESt23_Rb_tree_const_iteratorIS2_ERS1_@Base 0.87
 _ZNSt8_Rb_treeIlSt4pairIKlbESt10_Select1stIS2_ESt4lessIlESaIS2_EE8_M_eraseEPSt13_Rb_tree_nodeIS2_E@Base 0.87
 _ZNSt8_Rb_treeIllSt9_IdentityIlESt4lessIlESaIlEE7_M_copyINS5_11_Alloc_nodeEEEPSt13_Rb_tree_nodeIlEPKS9_PSt18_Rb_tree_node_baseRT_@Base 0.87
 _ZNSt8_Rb_treeIllSt9_IdentityIlESt4lessIlESaIlEE8_M_eraseEPSt13_Rb_tree_nodeIlE@Base 0.87
 _ZNSt8_Rb_treeImSt4pairIKm9CommandOpESt10_Select1stIS3_ESt4lessImESaIS3_EE24_M_get_insert_unique_posERS1_@Base 0.87
 _ZNSt8_Rb_treeImSt4pairIKm9CommandOpESt10_Select1stIS3_ESt4lessImESaIS3_EE29_M_get_insert_hint_unique_posESt23_Rb_tree_const_iteratorIS3_ERS1_@Base 0.87
 _ZNSt8_Rb_treeImSt4pairIKm9CommandOpESt10_Select1stIS3_ESt4lessImESaIS3_EE5eraseERS1_@Base 0.87
 _ZNSt8_Rb_treeImSt4pairIKm9CommandOpESt10_Select1stIS3_ESt4lessImESaIS3_EE8_M_eraseEPSt13_Rb_tree_nodeIS3_E@Base 0.87
 _ZNSt8_Rb_treeImSt4pairIKmN4ceph6buffer4listEESt10_Select1stIS5_ESt4lessImESaIS5_EE24_M_get_insert_unique_posERS1_@Base 0.87
 _ZNSt8_Rb_treeImSt4pairIKmN4ceph6buffer4listEESt10_Select1stIS5_ESt4lessImESaIS5_EE29_M_get_insert_hint_unique_posESt23_Rb_tree_const_iteratorIS5_ERS1_@Base 0.87
 _ZNSt8_Rb_treeImSt4pairIKmN4ceph6buffer4listEESt10_Select1stIS5_ESt4lessImESaIS5_EE8_M_eraseEPSt13_Rb_tree_nodeIS5_E@Base 0.87
 _ZNSt8_Rb_treeImSt4pairIKmNSt7__cxx1112basic_stringIcSt11char_traitsIcESaIcEEEESt10_Select1stIS8_ESt4lessImESaIS8_EE7_M_copyINSE_11_Alloc_nodeEEEPSt13_Rb_tree_nodeIS8_EPKSI_PSt18_Rb_tree_node_baseRT_@Base 0.87
 _ZNSt8_Rb_treeImSt4pairIKmNSt7__cxx1112basic_stringIcSt11char_traitsIcESaIcEEEESt10_Select1stIS8_ESt4lessImESaIS8_EE7_M_copyINSE_20_Reuse_or_alloc_nodeEEEPSt13_Rb_tree_nodeIS8_EPKSI_PSt18_Rb_tree_node_baseRT_@Base 0.87
 _ZNSt8_Rb_treeImSt4pairIKmNSt7__cxx1112basic_stringIcSt11char_traitsIcESaIcEEEESt10_Select1stIS8_ESt4lessImESaIS8_EE8_M_eraseEPSt13_Rb_tree_nodeIS8_E@Base 0.87
 _ZNSt8_Rb_treeImSt4pairIKmNSt7__cxx1112basic_stringIcSt11char_traitsIcESaIcEEEESt10_Select1stIS8_ESt4lessImESaIS8_EEaSERKSE_@Base 0.87
 _ZNSt8_Rb_treeImSt4pairIKmNSt7__cxx114listIP7ContextSaIS5_EEEESt10_Select1stIS8_ESt4lessImESaIS8_EE24_M_get_insert_unique_posERS1_@Base 0.87
 _ZNSt8_Rb_treeImSt4pairIKmNSt7__cxx114listIP7ContextSaIS5_EEEESt10_Select1stIS8_ESt4lessImESaIS8_EE29_M_get_insert_hint_unique_posESt23_Rb_tree_const_iteratorIS8_ERS1_@Base 0.87
 _ZNSt8_Rb_treeImSt4pairIKmNSt7__cxx114listIP7ContextSaIS5_EEEESt10_Select1stIS8_ESt4lessImESaIS8_EE5eraseERS1_@Base 0.87
 _ZNSt8_Rb_treeImSt4pairIKmNSt7__cxx114listIP7ContextSaIS5_EEEESt10_Select1stIS8_ESt4lessImESaIS8_EE8_M_eraseEPSt13_Rb_tree_nodeIS8_E@Base 0.87
 _ZNSt8_Rb_treeImSt4pairIKmP11MetaRequestESt10_Select1stIS4_ESt4lessImESaIS4_EE24_M_get_insert_unique_posERS1_@Base 0.87
 _ZNSt8_Rb_treeImSt4pairIKmP11MetaRequestESt10_Select1stIS4_ESt4lessImESaIS4_EE29_M_get_insert_hint_unique_posESt23_Rb_tree_const_iteratorIS4_ERS1_@Base 0.87
 _ZNSt8_Rb_treeImSt4pairIKmP11MetaRequestESt10_Select1stIS4_ESt4lessImESaIS4_EE8_M_eraseEPSt13_Rb_tree_nodeIS4_E@Base 0.87
 _ZNSt8_Rb_treeImSt4pairIKmPN8Objecter10PoolStatOpEESt10_Select1stIS5_ESt4lessImESaIS5_EE24_M_get_insert_unique_posERS1_@Base 0.87
 _ZNSt8_Rb_treeImSt4pairIKmPN8Objecter10PoolStatOpEESt10_Select1stIS5_ESt4lessImESaIS5_EE29_M_get_insert_hint_unique_posESt23_Rb_tree_const_iteratorIS5_ERS1_@Base 0.87
 _ZNSt8_Rb_treeImSt4pairIKmPN8Objecter10PoolStatOpEESt10_Select1stIS5_ESt4lessImESaIS5_EE5eraseERS1_@Base 0.87
 _ZNSt8_Rb_treeImSt4pairIKmPN8Objecter10PoolStatOpEESt10_Select1stIS5_ESt4lessImESaIS5_EE8_M_eraseEPSt13_Rb_tree_nodeIS5_E@Base 0.87
 _ZNSt8_Rb_treeImSt4pairIKmPN8Objecter2OpEESt10_Select1stIS5_ESt4lessImESaIS5_EE12_M_erase_auxESt23_Rb_tree_const_iteratorIS5_E@Base 0.87
 _ZNSt8_Rb_treeImSt4pairIKmPN8Objecter2OpEESt10_Select1stIS5_ESt4lessImESaIS5_EE24_M_get_insert_unique_posERS1_@Base 0.87
 _ZNSt8_Rb_treeImSt4pairIKmPN8Objecter2OpEESt10_Select1stIS5_ESt4lessImESaIS5_EE29_M_get_insert_hint_unique_posESt23_Rb_tree_const_iteratorIS5_ERS1_@Base 0.87
 _ZNSt8_Rb_treeImSt4pairIKmPN8Objecter2OpEESt10_Select1stIS5_ESt4lessImESaIS5_EE5eraseERS1_@Base 0.87
 _ZNSt8_Rb_treeImSt4pairIKmPN8Objecter2OpEESt10_Select1stIS5_ESt4lessImESaIS5_EE8_M_eraseEPSt13_Rb_tree_nodeIS5_E@Base 0.87
 _ZNSt8_Rb_treeImSt4pairIKmPN8Objecter6PoolOpEESt10_Select1stIS5_ESt4lessImESaIS5_EE24_M_get_insert_unique_posERS1_@Base 0.87
 _ZNSt8_Rb_treeImSt4pairIKmPN8Objecter6PoolOpEESt10_Select1stIS5_ESt4lessImESaIS5_EE29_M_get_insert_hint_unique_posESt23_Rb_tree_const_iteratorIS5_ERS1_@Base 0.87
 _ZNSt8_Rb_treeImSt4pairIKmPN8Objecter6PoolOpEESt10_Select1stIS5_ESt4lessImESaIS5_EE5eraseERS1_@Base 0.87
 _ZNSt8_Rb_treeImSt4pairIKmPN8Objecter6PoolOpEESt10_Select1stIS5_ESt4lessImESaIS5_EE8_M_eraseEPSt13_Rb_tree_nodeIS5_E@Base 0.87
 _ZNSt8_Rb_treeImSt4pairIKmPN8Objecter8LingerOpEESt10_Select1stIS5_ESt4lessImESaIS5_EE12_M_erase_auxESt23_Rb_tree_const_iteratorIS5_E@Base 0.87
 _ZNSt8_Rb_treeImSt4pairIKmPN8Objecter8LingerOpEESt10_Select1stIS5_ESt4lessImESaIS5_EE24_M_get_insert_unique_posERS1_@Base 0.87
 _ZNSt8_Rb_treeImSt4pairIKmPN8Objecter8LingerOpEESt10_Select1stIS5_ESt4lessImESaIS5_EE29_M_get_insert_hint_unique_posESt23_Rb_tree_const_iteratorIS5_ERS1_@Base 0.87
 _ZNSt8_Rb_treeImSt4pairIKmPN8Objecter8LingerOpEESt10_Select1stIS5_ESt4lessImESaIS5_EE5eraseERS1_@Base 0.87
 _ZNSt8_Rb_treeImSt4pairIKmPN8Objecter8LingerOpEESt10_Select1stIS5_ESt4lessImESaIS5_EE8_M_eraseEPSt13_Rb_tree_nodeIS5_E@Base 0.87
 _ZNSt8_Rb_treeImSt4pairIKmPN8Objecter8StatfsOpEESt10_Select1stIS5_ESt4lessImESaIS5_EE24_M_get_insert_unique_posERS1_@Base 0.87
 _ZNSt8_Rb_treeImSt4pairIKmPN8Objecter8StatfsOpEESt10_Select1stIS5_ESt4lessImESaIS5_EE29_M_get_insert_hint_unique_posESt23_Rb_tree_const_iteratorIS5_ERS1_@Base 0.87
 _ZNSt8_Rb_treeImSt4pairIKmPN8Objecter8StatfsOpEESt10_Select1stIS5_ESt4lessImESaIS5_EE5eraseERS1_@Base 0.87
 _ZNSt8_Rb_treeImSt4pairIKmPN8Objecter8StatfsOpEESt10_Select1stIS5_ESt4lessImESaIS5_EE8_M_eraseEPSt13_Rb_tree_nodeIS5_E@Base 0.87
 _ZNSt8_Rb_treeImSt4pairIKmPN8Objecter9CommandOpEESt10_Select1stIS5_ESt4lessImESaIS5_EE12_M_erase_auxESt23_Rb_tree_const_iteratorIS5_E@Base 0.87
 _ZNSt8_Rb_treeImSt4pairIKmPN8Objecter9CommandOpEESt10_Select1stIS5_ESt4lessImESaIS5_EE24_M_get_insert_unique_posERS1_@Base 0.87
 _ZNSt8_Rb_treeImSt4pairIKmPN8Objecter9CommandOpEESt10_Select1stIS5_ESt4lessImESaIS5_EE29_M_get_insert_hint_unique_posESt23_Rb_tree_const_iteratorIS5_ERS1_@Base 0.87
 _ZNSt8_Rb_treeImSt4pairIKmPN8Objecter9CommandOpEESt10_Select1stIS5_ESt4lessImESaIS5_EE5eraseERS1_@Base 0.87
 _ZNSt8_Rb_treeImSt4pairIKmPN8Objecter9CommandOpEESt10_Select1stIS5_ESt4lessImESaIS5_EE8_M_eraseEPSt13_Rb_tree_nodeIS5_E@Base 0.87
 _ZNSt8_Rb_treeImSt4pairIKmS0_IN4ceph6buffer4listEiEESt10_Select1stIS6_ESt4lessImESaIS6_EE24_M_get_insert_unique_posERS1_@Base 0.87
 _ZNSt8_Rb_treeImSt4pairIKmS0_IN4ceph6buffer4listEiEESt10_Select1stIS6_ESt4lessImESaIS6_EE29_M_get_insert_hint_unique_posESt23_Rb_tree_const_iteratorIS6_ERS1_@Base 0.87
 _ZNSt8_Rb_treeImSt4pairIKmS0_IN4ceph6buffer4listEiEESt10_Select1stIS6_ESt4lessImESaIS6_EE8_M_eraseEPSt13_Rb_tree_nodeIS6_E@Base 0.87
 _ZNSt8_Rb_treeImSt4pairIKmS0_IN4ceph6buffer4listEmEESt10_Select1stIS6_ESt4lessImESaIS6_EE24_M_get_insert_unique_posERS1_@Base 0.87
 _ZNSt8_Rb_treeImSt4pairIKmS0_IN4ceph6buffer4listEmEESt10_Select1stIS6_ESt4lessImESaIS6_EE29_M_get_insert_hint_unique_posESt23_Rb_tree_const_iteratorIS6_ERS1_@Base 0.87
 _ZNSt8_Rb_treeImSt4pairIKmS0_IN4ceph6buffer4listEmEESt10_Select1stIS6_ESt4lessImESaIS6_EE8_M_eraseEPSt13_Rb_tree_nodeIS6_E@Base 0.87
 _ZNSt8_Rb_treeImSt4pairIKmiESt10_Select1stIS2_ESt4lessImESaIS2_EE24_M_get_insert_unique_posERS1_@Base 0.87
 _ZNSt8_Rb_treeImSt4pairIKmiESt10_Select1stIS2_ESt4lessImESaIS2_EE29_M_get_insert_hint_unique_posESt23_Rb_tree_const_iteratorIS2_ERS1_@Base 0.87
 _ZNSt8_Rb_treeImSt4pairIKmiESt10_Select1stIS2_ESt4lessImESaIS2_EE8_M_eraseEPSt13_Rb_tree_nodeIS2_E@Base 0.87
 _ZNSt8_Rb_treeImSt4pairIKmmESt10_Select1stIS2_ESt4lessImESaIS2_EE12_M_erase_auxESt23_Rb_tree_const_iteratorIS2_E@Base 0.87
 _ZNSt8_Rb_treeImSt4pairIKmmESt10_Select1stIS2_ESt4lessImESaIS2_EE14_M_insert_nodeEPSt18_Rb_tree_node_baseSA_PSt13_Rb_tree_nodeIS2_E@Base 0.87
 _ZNSt8_Rb_treeImSt4pairIKmmESt10_Select1stIS2_ESt4lessImESaIS2_EE24_M_get_insert_unique_posERS1_@Base 0.87
 _ZNSt8_Rb_treeImSt4pairIKmmESt10_Select1stIS2_ESt4lessImESaIS2_EE29_M_get_insert_hint_unique_posESt23_Rb_tree_const_iteratorIS2_ERS1_@Base 0.87
 _ZNSt8_Rb_treeImSt4pairIKmmESt10_Select1stIS2_ESt4lessImESaIS2_EE8_M_eraseEPSt13_Rb_tree_nodeIS2_E@Base 0.87
 _ZNSt8_Rb_treeImmSt9_IdentityImESt4lessImESaImEE16_M_insert_uniqueIRKmEESt4pairISt17_Rb_tree_iteratorImEbEOT_@Base 0.87
 _ZNSt8_Rb_treeImmSt9_IdentityImESt4lessImESaImEE5eraseERKm@Base 0.87
 _ZNSt8_Rb_treeImmSt9_IdentityImESt4lessImESaImEE7_M_copyINS5_11_Alloc_nodeEEEPSt13_Rb_tree_nodeImEPKS9_PSt18_Rb_tree_node_baseRT_@Base 0.87
 _ZNSt8_Rb_treeImmSt9_IdentityImESt4lessImESaImEE8_M_eraseEPSt13_Rb_tree_nodeImE@Base 0.87
 _ZNSt8__detail9_Map_baseI10vinodeno_tSt4pairIKS1_P5InodeESaIS6_ENS_10_Select1stESt8equal_toIS1_ESt4hashIS1_ENS_18_Mod_range_hashingENS_20_Default_ranged_hashENS_20_Prime_rehash_policyENS_17_Hashtable_traitsILb1ELb0ELb1EEELb1EEixERS3_@Base 0.87
 _ZNSt8__detail9_Map_baseI9inodeno_tSt4pairIKS1_P9SnapRealmESaIS6_ENS_10_Select1stESt8equal_toIS1_ESt4hashIS1_ENS_18_Mod_range_hashingENS_20_Default_ranged_hashENS_20_Prime_rehash_policyENS_17_Hashtable_traitsILb1ELb0ELb1EEELb1EEixERS3_@Base 0.87
 _ZNSt8__detail9_Map_baseI9sobject_tSt4pairIKS1_PN12ObjectCacher6ObjectEESaIS7_ENS_10_Select1stESt8equal_toIS1_ESt4hashIS1_ENS_18_Mod_range_hashingENS_20_Default_ranged_hashENS_20_Prime_rehash_policyENS_17_Hashtable_traitsILb1ELb0ELb1EEELb1EEixERS3_@Base 0.87
 _ZNSt8__detail9_Map_baseINSt7__cxx1112basic_stringIcSt11char_traitsIcESaIcEEESt4pairIKS6_P6DentryESaISB_ENS_10_Select1stESt8equal_toIS6_ESt4hashIS6_ENS_18_Mod_range_hashingENS_20_Default_ranged_hashENS_20_Prime_rehash_policyENS_17_Hashtable_traitsILb1ELb0ELb1EEELb1EEixERS8_@Base 0.87
 _ZNSt8__detail9_Map_baseImSt4pairIKm10vinodeno_tESaIS4_ENS_10_Select1stESt8equal_toImESt4hashImENS_18_Mod_range_hashingENS_20_Default_ranged_hashENS_20_Prime_rehash_policyENS_17_Hashtable_traitsILb0ELb0ELb1EEELb1EEixERS2_@Base 0.87
 _ZNSt8functionIFvvEEC1ERKS1_@Base 0.87
 _ZNSt8functionIFvvEEC2ERKS1_@Base 0.87
 _ZStplIcSt11char_traitsIcESaIcEENSt7__cxx1112basic_stringIT_T0_T1_EEOS8_PKS5_@Base 0.87
 _ZTI10C_SafeCond@Base 0.87
 _ZTI10Dispatcher@Base 0.87
 _ZTI10UserGroups@Base 0.87
 _ZTI11C_SaferCond@Base 0.87
 _ZTI11MClientCaps@Base 0.87
 _ZTI11MMonCommand@Base 0.87
 _ZTI12C_GatherBaseI7ContextS0_E@Base 0.87
 _ZTI12C_OnFinisher@Base 0.87
 _ZTI12C_PurgeRange@Base 0.87
 _ZTI12MClientLease@Base 0.87
 _ZTI13C_NoopContext@Base 0.87
 _ZTI13MGetPoolStats@Base 0.87
 _ZTI14C_DoWatchError@Base 0.87
 _ZTI14MClientRequest@Base 0.87
 _ZTI14MClientSession@Base 0.87
 _ZTI15AdminSocketHook@Base 0.87
 _ZTI15C_DoWatchNotify@Base 0.87
 _ZTI15md_config_obs_t@Base 0.87
 _ZTI16C_Client_Remount@Base 0.87
 _ZTI16C_EnumerateReply@Base 0.87
 _ZTI16MClientReconnect@Base 0.87
 _ZTI16RefCountedObject@Base 0.87
 _ZTI16WritebackHandler@Base 0.87
 _ZTI17C_SelfmanagedSnap@Base 0.87
 _ZTI17MClientCapRelease@Base 0.87
 _ZTI17ObjecterWriteback@Base 0.87
 _ZTI19C_Client_SyncCommit@Base 0.87
 _ZTI19C_Journaler_Prezero@Base 0.87
 _ZTI19PaxosServiceMessage@Base 0.87
 _ZTI21C_Objecter_GetVersion@Base 0.87
 _ZTI22C_Client_FlushComplete@Base 0.87
 _ZTI24C_Client_CacheInvalidate@Base 0.87
 _ZTI25C_Client_DentryInvalidate@Base 0.87
 _ZTI25C_Client_RequestInterrupt@Base 0.87
 _ZTI4Cond@Base 0.87
 _ZTI5MPing@Base 0.87
 _ZTI6C_Cond@Base 0.87
 _ZTI6C_Lock@Base 0.87
 _ZTI6Client@Base 0.87
 _ZTI6MOSDOp@Base 0.87
 _ZTI7Context@Base 0.87
 _ZTI7MPoolOp@Base 0.87
 _ZTI7MStatfs@Base 0.87
 _ZTI8C_C_Tick@Base 0.87
 _ZTI8MCommand@Base 0.87
 _ZTI8Objecter@Base 0.87
 _ZTIN12C_GatherBaseI7ContextS0_E11C_GatherSubE@Base 0.87
 _ZTIN12ObjectCacher11C_RetryReadE@Base 0.87
 _ZTIN12ObjectCacher12C_ReadFinishE@Base 0.87
 _ZTIN12ObjectCacher13C_WriteCommitE@Base 0.87
 _ZTIN12ObjectCacher13FlusherThreadE@Base 0.87
 _ZTIN12ObjectCacher14C_WaitForWriteE@Base 0.87
 _ZTIN15ObjectOperation22C_ObjectOperation_statE@Base 0.87
 _ZTIN5Filer7C_ProbeE@Base 0.87
 _ZTIN5boost10lock_errorE@Base 0.87
 _ZTIN5boost15condition_errorE@Base 0.87
 _ZTIN5boost16bad_lexical_castE@Base 0.87
 _ZTIN5boost16exception_detail10clone_baseE@Base 0.87
 _ZTIN5boost16exception_detail10clone_implINS0_19error_info_injectorINS_10lock_errorEEEEE@Base 0.87
 _ZTIN5boost16exception_detail10clone_implINS0_19error_info_injectorINS_15condition_errorEEEEE@Base 0.87
 _ZTIN5boost16exception_detail10clone_implINS0_19error_info_injectorINS_16bad_lexical_castEEEEE@Base 0.87
 _ZTIN5boost16exception_detail10clone_implINS0_19error_info_injectorINS_17bad_function_callEEEEE@Base 0.87
 _ZTIN5boost16exception_detail10clone_implINS0_19error_info_injectorINS_21thread_resource_errorEEEEE@Base 0.87
 _ZTIN5boost16exception_detail19error_info_injectorINS_10lock_errorEEE@Base 0.87
 _ZTIN5boost16exception_detail19error_info_injectorINS_15condition_errorEEE@Base 0.87
 _ZTIN5boost16exception_detail19error_info_injectorINS_16bad_lexical_castEEE@Base 0.87
 _ZTIN5boost16exception_detail19error_info_injectorINS_17bad_function_callEEE@Base 0.87
 _ZTIN5boost16exception_detail19error_info_injectorINS_21thread_resource_errorEEE@Base 0.87
 _ZTIN5boost16thread_exceptionE@Base 0.87
 _ZTIN5boost17bad_function_callE@Base 0.87
 _ZTIN5boost18thread_interruptedE@Base 0.87
 _ZTIN5boost21thread_resource_errorE@Base 0.87
 _ZTIN5boost6spirit2qi6detail13parser_binderINS1_4plusINS1_8char_setINS0_13char_encoding8standardELb0ELb0EEEEEN4mpl_5bool_ILb0EEEEE@Base 0.87
 _ZTIN5boost6spirit2qi6detail13parser_binderINS1_8sequenceINS_6fusion4consINS1_8char_setINS0_13char_encoding8standardELb0ELb0EEENS6_INS1_6kleeneISA_EENS5_4nil_EEEEEEEN4mpl_5bool_ILb0EEEEE@Base 0.87
 _ZTIN5boost6spirit2qi6detail13parser_binderINS1_8sequenceINS_6fusion4consINS1_9referenceIKNS1_4ruleIN9__gnu_cxx17__normal_iteratorIPcNSt7__cxx1112basic_stringIcSt11char_traitsIcESaIcEEEEEFSH_vENS0_11unused_typeESK_SK_EEEENS6_INS1_12literal_charINS0_13char_encoding8standardELb1ELb0EEENS6_ISN_NS5_4nil_EEEEEEEEEN4mpl_5bool_ILb0EEEEE@Base 0.87
 _ZTIN5boost6spirit2qi6detail13parser_binderINS1_8sequenceINS_6fusion4consINS1_9referenceIKNS1_4ruleIN9__gnu_cxx17__normal_iteratorIPcNSt7__cxx1112basic_stringIcSt11char_traitsIcESaIcEEEEEFSt4pairISH_SH_EvENS0_11unused_typeESM_SM_EEEENS6_INS1_6kleeneINS4_INS6_INS1_12literal_charINS0_13char_encoding8standardELb1ELb0EEENS6_ISP_NS5_4nil_EEEEEEEEESV_EEEEEEN4mpl_5bool_ILb0EEEEE@Base 0.87
 _ZTIN5boost6system12system_errorE@Base 0.87
 _ZTIN5boost9exceptionE@Base 0.87
 _ZTIN6Client11C_ReadaheadE@Base 0.87
 _ZTIN6Client11CommandHookE@Base 0.87
 _ZTIN6Client17RequestUserGroupsE@Base 0.87
 _ZTIN6HitSet6ParamsE@Base 0.87
 _ZTIN8Finisher14FinisherThreadE@Base 0.87
 _ZTIN8Objecter10OSDSessionE@Base 0.87
 _ZTIN8Objecter13C_Linger_PingE@Base 0.87
 _ZTIN8Objecter15C_Linger_CommitE@Base 0.87
 _ZTIN8Objecter15C_Op_Map_LatestE@Base 0.87
 _ZTIN8Objecter16RequestStateHookE@Base 0.87
 _ZTIN8Objecter18C_Linger_ReconnectE@Base 0.87
 _ZTIN8Objecter19C_Linger_Map_LatestE@Base 0.87
 _ZTIN8Objecter20C_Command_Map_LatestE@Base 0.87
 _ZTIN8Objecter2OpE@Base 0.87
 _ZTIN8Objecter6C_ListE@Base 0.87
 _ZTIN8Objecter6C_StatE@Base 0.87
 _ZTIN8Objecter7C_NListE@Base 0.87
 _ZTIN8Objecter8C_SGReadE@Base 0.87
 _ZTIN8Objecter8LingerOpE@Base 0.87
 _ZTIN9Journaler10C_ProbeEndE@Base 0.87
 _ZTIN9Journaler10C_ReadHeadE@Base 0.87
 _ZTIN9Journaler11C_RetryReadE@Base 0.87
 _ZTIN9Journaler11C_WriteHeadE@Base 0.87
 _ZTIN9Journaler12C_DelayFlushE@Base 0.87
 _ZTIN9Journaler12C_RereadHeadE@Base 0.87
 _ZTIN9Journaler13C_EraseFinishE@Base 0.87
 _ZTIN9Journaler17C_RereadHeadProbeE@Base 0.87
 _ZTIN9Journaler6C_ReadE@Base 0.87
 _ZTIN9Journaler6C_TrimE@Base 0.87
 _ZTIN9Journaler7C_FlushE@Base 0.87
 _ZTIN9Journaler9C_ReProbeE@Base 0.87
 _ZTINSt6thread11_State_implISt12_Bind_simpleIFSt7_Mem_fnIMN4ceph12timer_detail5timerINS3_11time_detail10mono_clockEEEFvvEEPS8_EEEE@Base 0.87
 _ZTINSt7__cxx1112basic_stringIcSt11char_traitsIcESaIcEEE@Base 0.87
 _ZTISt11_Mutex_baseILN9__gnu_cxx12_Lock_policyE2EE@Base 0.87
 _ZTISt15_Sp_counted_ptrIPN6OSDMap7addrs_sELN9__gnu_cxx12_Lock_policyE2EE@Base 0.87
 _ZTISt15_Sp_counted_ptrIPSt3mapI4pg_tSt6vectorIiSaIiEESt4lessIS1_ESaISt4pairIKS1_S4_EEELN9__gnu_cxx12_Lock_policyE2EE@Base 0.87
 _ZTISt15_Sp_counted_ptrIPSt3mapI4pg_tiSt4lessIS1_ESaISt4pairIKS1_iEEELN9__gnu_cxx12_Lock_policyE2EE@Base 0.87
 _ZTISt15_Sp_counted_ptrIPSt6vectorI6uuid_dSaIS1_EELN9__gnu_cxx12_Lock_policyE2EE@Base 0.87
 _ZTISt15_Sp_counted_ptrIPSt6vectorIjSaIjEELN9__gnu_cxx12_Lock_policyE2EE@Base 0.87
 _ZTISt15error_condition@Base 0.87
 _ZTISt16_Sp_counted_baseILN9__gnu_cxx12_Lock_policyE2EE@Base 0.87
 _ZTISt17_Weak_result_typeISt7_Mem_fnIM8ObjecterFvvEEE@Base 0.87
 _ZTISt19_Sp_make_shared_tag@Base 0.87
 _ZTISt22_Maybe_get_result_typeISt7_Mem_fnIM8ObjecterFvvEEvE@Base 0.87
 _ZTISt22_Weak_result_type_implISt7_Mem_fnIM8ObjecterFvvEEE@Base 0.87
 _ZTISt23_Sp_counted_ptr_inplaceI10FilesystemSaIS0_ELN9__gnu_cxx12_Lock_policyE2EE@Base 0.87
 _ZTISt23_Sp_counted_ptr_inplaceI12CrushWrapperSaIS0_ELN9__gnu_cxx12_Lock_policyE2EE@Base 0.87
 _ZTISt23_Sp_counted_ptr_inplaceIN6OSDMap7addrs_sESaIS1_ELN9__gnu_cxx12_Lock_policyE2EE@Base 0.87
 _ZTISt23_Sp_counted_ptr_inplaceISt3mapI4pg_tSt6vectorIiSaIiEESt4lessIS1_ESaISt4pairIKS1_S4_EEESaISB_ELN9__gnu_cxx12_Lock_policyE2EE@Base 0.87
 _ZTISt23_Sp_counted_ptr_inplaceISt3mapI4pg_tiSt4lessIS1_ESaISt4pairIKS1_iEEESaIS8_ELN9__gnu_cxx12_Lock_policyE2EE@Base 0.87
 _ZTISt23_Sp_counted_ptr_inplaceISt6vectorI6uuid_dSaIS1_EESaIS3_ELN9__gnu_cxx12_Lock_policyE2EE@Base 0.87
 _ZTISt5_BindIFSt7_Mem_fnIM8ObjecterFvvEEPS1_EE@Base 0.87
 _ZTS10C_SafeCond@Base 0.87
 _ZTS10Dispatcher@Base 0.87
 _ZTS10UserGroups@Base 0.87
 _ZTS11C_SaferCond@Base 0.87
 _ZTS11MClientCaps@Base 0.87
 _ZTS11MMonCommand@Base 0.87
 _ZTS12C_GatherBaseI7ContextS0_E@Base 0.87
 _ZTS12C_OnFinisher@Base 0.87
 _ZTS12C_PurgeRange@Base 0.87
 _ZTS12MClientLease@Base 0.87
 _ZTS13C_NoopContext@Base 0.87
 _ZTS13MGetPoolStats@Base 0.87
 _ZTS14C_DoWatchError@Base 0.87
 _ZTS14MClientRequest@Base 0.87
 _ZTS14MClientSession@Base 0.87
 _ZTS15AdminSocketHook@Base 0.87
 _ZTS15C_DoWatchNotify@Base 0.87
 _ZTS15md_config_obs_t@Base 0.87
 _ZTS16C_Client_Remount@Base 0.87
 _ZTS16C_EnumerateReply@Base 0.87
 _ZTS16MClientReconnect@Base 0.87
 _ZTS16RefCountedObject@Base 0.87
 _ZTS16WritebackHandler@Base 0.87
 _ZTS17C_SelfmanagedSnap@Base 0.87
 _ZTS17MClientCapRelease@Base 0.87
 _ZTS17ObjecterWriteback@Base 0.87
 _ZTS19C_Client_SyncCommit@Base 0.87
 _ZTS19C_Journaler_Prezero@Base 0.87
 _ZTS19PaxosServiceMessage@Base 0.87
 _ZTS21C_Objecter_GetVersion@Base 0.87
 _ZTS22C_Client_FlushComplete@Base 0.87
 _ZTS24C_Client_CacheInvalidate@Base 0.87
 _ZTS25C_Client_DentryInvalidate@Base 0.87
 _ZTS25C_Client_RequestInterrupt@Base 0.87
 _ZTS4Cond@Base 0.87
 _ZTS5MPing@Base 0.87
 _ZTS6C_Cond@Base 0.87
 _ZTS6C_Lock@Base 0.87
 _ZTS6Client@Base 0.87
 _ZTS6MOSDOp@Base 0.87
 _ZTS7Context@Base 0.87
 _ZTS7MPoolOp@Base 0.87
 _ZTS7MStatfs@Base 0.87
 _ZTS8C_C_Tick@Base 0.87
 _ZTS8MCommand@Base 0.87
 _ZTS8Objecter@Base 0.87
 _ZTSN12C_GatherBaseI7ContextS0_E11C_GatherSubE@Base 0.87
 _ZTSN12ObjectCacher11C_RetryReadE@Base 0.87
 _ZTSN12ObjectCacher12C_ReadFinishE@Base 0.87
 _ZTSN12ObjectCacher13C_WriteCommitE@Base 0.87
 _ZTSN12ObjectCacher13FlusherThreadE@Base 0.87
 _ZTSN12ObjectCacher14C_WaitForWriteE@Base 0.87
 _ZTSN15ObjectOperation22C_ObjectOperation_statE@Base 0.87
 _ZTSN5Filer7C_ProbeE@Base 0.87
 _ZTSN5boost10lock_errorE@Base 0.87
 _ZTSN5boost15condition_errorE@Base 0.87
 _ZTSN5boost16bad_lexical_castE@Base 0.87
 _ZTSN5boost16exception_detail10clone_baseE@Base 0.87
 _ZTSN5boost16exception_detail10clone_implINS0_19error_info_injectorINS_10lock_errorEEEEE@Base 0.87
 _ZTSN5boost16exception_detail10clone_implINS0_19error_info_injectorINS_15condition_errorEEEEE@Base 0.87
 _ZTSN5boost16exception_detail10clone_implINS0_19error_info_injectorINS_16bad_lexical_castEEEEE@Base 0.87
 _ZTSN5boost16exception_detail10clone_implINS0_19error_info_injectorINS_17bad_function_callEEEEE@Base 0.87
 _ZTSN5boost16exception_detail10clone_implINS0_19error_info_injectorINS_21thread_resource_errorEEEEE@Base 0.87
 _ZTSN5boost16exception_detail19error_info_injectorINS_10lock_errorEEE@Base 0.87
 _ZTSN5boost16exception_detail19error_info_injectorINS_15condition_errorEEE@Base 0.87
 _ZTSN5boost16exception_detail19error_info_injectorINS_16bad_lexical_castEEE@Base 0.87
 _ZTSN5boost16exception_detail19error_info_injectorINS_17bad_function_callEEE@Base 0.87
 _ZTSN5boost16exception_detail19error_info_injectorINS_21thread_resource_errorEEE@Base 0.87
 _ZTSN5boost16thread_exceptionE@Base 0.87
 _ZTSN5boost17bad_function_callE@Base 0.87
 _ZTSN5boost18thread_interruptedE@Base 0.87
 _ZTSN5boost21thread_resource_errorE@Base 0.87
 _ZTSN5boost6spirit2qi6detail13parser_binderINS1_4plusINS1_8char_setINS0_13char_encoding8standardELb0ELb0EEEEEN4mpl_5bool_ILb0EEEEE@Base 0.87
 _ZTSN5boost6spirit2qi6detail13parser_binderINS1_8sequenceINS_6fusion4consINS1_8char_setINS0_13char_encoding8standardELb0ELb0EEENS6_INS1_6kleeneISA_EENS5_4nil_EEEEEEEN4mpl_5bool_ILb0EEEEE@Base 0.87
 _ZTSN5boost6spirit2qi6detail13parser_binderINS1_8sequenceINS_6fusion4consINS1_9referenceIKNS1_4ruleIN9__gnu_cxx17__normal_iteratorIPcNSt7__cxx1112basic_stringIcSt11char_traitsIcESaIcEEEEEFSH_vENS0_11unused_typeESK_SK_EEEENS6_INS1_12literal_charINS0_13char_encoding8standardELb1ELb0EEENS6_ISN_NS5_4nil_EEEEEEEEEN4mpl_5bool_ILb0EEEEE@Base 0.87
 _ZTSN5boost6spirit2qi6detail13parser_binderINS1_8sequenceINS_6fusion4consINS1_9referenceIKNS1_4ruleIN9__gnu_cxx17__normal_iteratorIPcNSt7__cxx1112basic_stringIcSt11char_traitsIcESaIcEEEEEFSt4pairISH_SH_EvENS0_11unused_typeESM_SM_EEEENS6_INS1_6kleeneINS4_INS6_INS1_12literal_charINS0_13char_encoding8standardELb1ELb0EEENS6_ISP_NS5_4nil_EEEEEEEEESV_EEEEEEN4mpl_5bool_ILb0EEEEE@Base 0.87
 _ZTSN5boost6system12system_errorE@Base 0.87
 _ZTSN5boost9exceptionE@Base 0.87
 _ZTSN6Client11C_ReadaheadE@Base 0.87
 _ZTSN6Client11CommandHookE@Base 0.87
 _ZTSN6Client17RequestUserGroupsE@Base 0.87
 _ZTSN6HitSet6ParamsE@Base 0.87
 _ZTSN8Finisher14FinisherThreadE@Base 0.87
 _ZTSN8Objecter10OSDSessionE@Base 0.87
 _ZTSN8Objecter13C_Linger_PingE@Base 0.87
 _ZTSN8Objecter15C_Linger_CommitE@Base 0.87
 _ZTSN8Objecter15C_Op_Map_LatestE@Base 0.87
 _ZTSN8Objecter16RequestStateHookE@Base 0.87
 _ZTSN8Objecter18C_Linger_ReconnectE@Base 0.87
 _ZTSN8Objecter19C_Linger_Map_LatestE@Base 0.87
 _ZTSN8Objecter20C_Command_Map_LatestE@Base 0.87
 _ZTSN8Objecter2OpE@Base 0.87
 _ZTSN8Objecter6C_ListE@Base 0.87
 _ZTSN8Objecter6C_StatE@Base 0.87
 _ZTSN8Objecter7C_NListE@Base 0.87
 _ZTSN8Objecter8C_SGReadE@Base 0.87
 _ZTSN8Objecter8LingerOpE@Base 0.87
 _ZTSN9Journaler10C_ProbeEndE@Base 0.87
 _ZTSN9Journaler10C_ReadHeadE@Base 0.87
 _ZTSN9Journaler11C_RetryReadE@Base 0.87
 _ZTSN9Journaler11C_WriteHeadE@Base 0.87
 _ZTSN9Journaler12C_DelayFlushE@Base 0.87
 _ZTSN9Journaler12C_RereadHeadE@Base 0.87
 _ZTSN9Journaler13C_EraseFinishE@Base 0.87
 _ZTSN9Journaler17C_RereadHeadProbeE@Base 0.87
 _ZTSN9Journaler6C_ReadE@Base 0.87
 _ZTSN9Journaler6C_TrimE@Base 0.87
 _ZTSN9Journaler7C_FlushE@Base 0.87
 _ZTSN9Journaler9C_ReProbeE@Base 0.87
 _ZTSNSt6thread11_State_implISt12_Bind_simpleIFSt7_Mem_fnIMN4ceph12timer_detail5timerINS3_11time_detail10mono_clockEEEFvvEEPS8_EEEE@Base 0.87
 _ZTSNSt7__cxx1112basic_stringIcSt11char_traitsIcESaIcEEE@Base 0.87
 _ZTSSt11_Mutex_baseILN9__gnu_cxx12_Lock_policyE2EE@Base 0.87
 _ZTSSt15_Sp_counted_ptrIPN6OSDMap7addrs_sELN9__gnu_cxx12_Lock_policyE2EE@Base 0.87
 _ZTSSt15_Sp_counted_ptrIPSt3mapI4pg_tSt6vectorIiSaIiEESt4lessIS1_ESaISt4pairIKS1_S4_EEELN9__gnu_cxx12_Lock_policyE2EE@Base 0.87
 _ZTSSt15_Sp_counted_ptrIPSt3mapI4pg_tiSt4lessIS1_ESaISt4pairIKS1_iEEELN9__gnu_cxx12_Lock_policyE2EE@Base 0.87
 _ZTSSt15_Sp_counted_ptrIPSt6vectorI6uuid_dSaIS1_EELN9__gnu_cxx12_Lock_policyE2EE@Base 0.87
 _ZTSSt15_Sp_counted_ptrIPSt6vectorIjSaIjEELN9__gnu_cxx12_Lock_policyE2EE@Base 0.87
 _ZTSSt15error_condition@Base 0.87
 _ZTSSt16_Sp_counted_baseILN9__gnu_cxx12_Lock_policyE2EE@Base 0.87
 _ZTSSt17_Weak_result_typeISt7_Mem_fnIM8ObjecterFvvEEE@Base 0.87
 _ZTSSt19_Sp_make_shared_tag@Base 0.87
 _ZTSSt22_Maybe_get_result_typeISt7_Mem_fnIM8ObjecterFvvEEvE@Base 0.87
 _ZTSSt22_Weak_result_type_implISt7_Mem_fnIM8ObjecterFvvEEE@Base 0.87
 _ZTSSt23_Sp_counted_ptr_inplaceI10FilesystemSaIS0_ELN9__gnu_cxx12_Lock_policyE2EE@Base 0.87
 _ZTSSt23_Sp_counted_ptr_inplaceI12CrushWrapperSaIS0_ELN9__gnu_cxx12_Lock_policyE2EE@Base 0.87
 _ZTSSt23_Sp_counted_ptr_inplaceIN6OSDMap7addrs_sESaIS1_ELN9__gnu_cxx12_Lock_policyE2EE@Base 0.87
 _ZTSSt23_Sp_counted_ptr_inplaceISt3mapI4pg_tSt6vectorIiSaIiEESt4lessIS1_ESaISt4pairIKS1_S4_EEESaISB_ELN9__gnu_cxx12_Lock_policyE2EE@Base 0.87
 _ZTSSt23_Sp_counted_ptr_inplaceISt3mapI4pg_tiSt4lessIS1_ESaISt4pairIKS1_iEEESaIS8_ELN9__gnu_cxx12_Lock_policyE2EE@Base 0.87
 _ZTSSt23_Sp_counted_ptr_inplaceISt6vectorI6uuid_dSaIS1_EESaIS3_ELN9__gnu_cxx12_Lock_policyE2EE@Base 0.87
 _ZTSSt5_BindIFSt7_Mem_fnIM8ObjecterFvvEEPS1_EE@Base 0.87
 _ZTTN5boost16exception_detail10clone_implINS0_19error_info_injectorINS_10lock_errorEEEEE@Base 0.87
 _ZTTN5boost16exception_detail10clone_implINS0_19error_info_injectorINS_15condition_errorEEEEE@Base 0.87
 _ZTTN5boost16exception_detail10clone_implINS0_19error_info_injectorINS_16bad_lexical_castEEEEE@Base 0.87
 _ZTTN5boost16exception_detail10clone_implINS0_19error_info_injectorINS_17bad_function_callEEEEE@Base 0.87
 _ZTTN5boost16exception_detail10clone_implINS0_19error_info_injectorINS_21thread_resource_errorEEEEE@Base 0.87
 _ZTV10C_SafeCond@Base 0.87
 _ZTV11C_SaferCond@Base 0.87
 _ZTV11MClientCaps@Base 0.87
 _ZTV11MMonCommand@Base 0.87
 _ZTV12C_GatherBaseI7ContextS0_E@Base 0.87
 _ZTV12C_OnFinisher@Base 0.87
 _ZTV12C_PurgeRange@Base 0.87
 _ZTV12MClientLease@Base 0.87
 _ZTV13C_NoopContext@Base 0.87
 _ZTV13MGetPoolStats@Base 0.87
 _ZTV14C_DoWatchError@Base 0.87
 _ZTV14MClientRequest@Base 0.87
 _ZTV14MClientSession@Base 0.87
 _ZTV15C_DoWatchNotify@Base 0.87
 _ZTV16C_Client_Remount@Base 0.87
 _ZTV16C_EnumerateReply@Base 0.87
 _ZTV16MClientReconnect@Base 0.87
 _ZTV16RefCountedObject@Base 0.87
 _ZTV17C_SelfmanagedSnap@Base 0.87
 _ZTV17MClientCapRelease@Base 0.87
 _ZTV17ObjecterWriteback@Base 0.87
 _ZTV19C_Client_SyncCommit@Base 0.87
 _ZTV19C_Journaler_Prezero@Base 0.87
 _ZTV19PaxosServiceMessage@Base 0.87
 _ZTV21C_Objecter_GetVersion@Base 0.87
 _ZTV22C_Client_FlushComplete@Base 0.87
 _ZTV24C_Client_CacheInvalidate@Base 0.87
 _ZTV25C_Client_DentryInvalidate@Base 0.87
 _ZTV25C_Client_RequestInterrupt@Base 0.87
 _ZTV4Cond@Base 0.87
 _ZTV5MPing@Base 0.87
 _ZTV6C_Cond@Base 0.87
 _ZTV6C_Lock@Base 0.87
 _ZTV6Client@Base 0.87
 _ZTV6MOSDOp@Base 0.87
 _ZTV7MPoolOp@Base 0.87
 _ZTV7MStatfs@Base 0.87
 _ZTV8C_C_Tick@Base 0.87
 _ZTV8MCommand@Base 0.87
 _ZTV8Objecter@Base 0.87
 _ZTVN12C_GatherBaseI7ContextS0_E11C_GatherSubE@Base 0.87
 _ZTVN12ObjectCacher11C_RetryReadE@Base 0.87
 _ZTVN12ObjectCacher12C_ReadFinishE@Base 0.87
 _ZTVN12ObjectCacher13C_WriteCommitE@Base 0.87
 _ZTVN12ObjectCacher13FlusherThreadE@Base 0.87
 _ZTVN12ObjectCacher14C_WaitForWriteE@Base 0.87
 _ZTVN15ObjectOperation22C_ObjectOperation_statE@Base 0.87
 _ZTVN5Filer7C_ProbeE@Base 0.87
 _ZTVN5boost10lock_errorE@Base 0.87
 _ZTVN5boost15condition_errorE@Base 0.87
 _ZTVN5boost16bad_lexical_castE@Base 0.87
 _ZTVN5boost16exception_detail10clone_baseE@Base 0.87
 _ZTVN5boost16exception_detail10clone_implINS0_19error_info_injectorINS_10lock_errorEEEEE@Base 0.87
 _ZTVN5boost16exception_detail10clone_implINS0_19error_info_injectorINS_15condition_errorEEEEE@Base 0.87
 _ZTVN5boost16exception_detail10clone_implINS0_19error_info_injectorINS_16bad_lexical_castEEEEE@Base 0.87
 _ZTVN5boost16exception_detail10clone_implINS0_19error_info_injectorINS_17bad_function_callEEEEE@Base 0.87
 _ZTVN5boost16exception_detail10clone_implINS0_19error_info_injectorINS_21thread_resource_errorEEEEE@Base 0.87
 _ZTVN5boost16exception_detail19error_info_injectorINS_10lock_errorEEE@Base 0.87
 _ZTVN5boost16exception_detail19error_info_injectorINS_15condition_errorEEE@Base 0.87
 _ZTVN5boost16exception_detail19error_info_injectorINS_16bad_lexical_castEEE@Base 0.87
 _ZTVN5boost16exception_detail19error_info_injectorINS_17bad_function_callEEE@Base 0.87
 _ZTVN5boost16exception_detail19error_info_injectorINS_21thread_resource_errorEEE@Base 0.87
 _ZTVN5boost16thread_exceptionE@Base 0.87
 _ZTVN5boost17bad_function_callE@Base 0.87
 _ZTVN5boost21thread_resource_errorE@Base 0.87
 _ZTVN5boost6system12system_errorE@Base 0.87
 _ZTVN5boost9exceptionE@Base 0.87
 _ZTVN6Client11C_ReadaheadE@Base 0.87
 _ZTVN6Client11CommandHookE@Base 0.87
 _ZTVN6Client17RequestUserGroupsE@Base 0.87
 _ZTVN6HitSet6ParamsE@Base 0.87
 _ZTVN8Finisher14FinisherThreadE@Base 0.87
 _ZTVN8Objecter10OSDSessionE@Base 0.87
 _ZTVN8Objecter13C_Linger_PingE@Base 0.87
 _ZTVN8Objecter15C_Linger_CommitE@Base 0.87
 _ZTVN8Objecter15C_Op_Map_LatestE@Base 0.87
 _ZTVN8Objecter16RequestStateHookE@Base 0.87
 _ZTVN8Objecter18C_Linger_ReconnectE@Base 0.87
 _ZTVN8Objecter19C_Linger_Map_LatestE@Base 0.87
 _ZTVN8Objecter20C_Command_Map_LatestE@Base 0.87
 _ZTVN8Objecter2OpE@Base 0.87
 _ZTVN8Objecter6C_ListE@Base 0.87
 _ZTVN8Objecter6C_StatE@Base 0.87
 _ZTVN8Objecter7C_NListE@Base 0.87
 _ZTVN8Objecter8C_SGReadE@Base 0.87
 _ZTVN8Objecter8LingerOpE@Base 0.87
 _ZTVN9Journaler10C_ProbeEndE@Base 0.87
 _ZTVN9Journaler10C_ReadHeadE@Base 0.87
 _ZTVN9Journaler11C_RetryReadE@Base 0.87
 _ZTVN9Journaler11C_WriteHeadE@Base 0.87
 _ZTVN9Journaler12C_DelayFlushE@Base 0.87
 _ZTVN9Journaler12C_RereadHeadE@Base 0.87
 _ZTVN9Journaler13C_EraseFinishE@Base 0.87
 _ZTVN9Journaler17C_RereadHeadProbeE@Base 0.87
 _ZTVN9Journaler6C_ReadE@Base 0.87
 _ZTVN9Journaler6C_TrimE@Base 0.87
 _ZTVN9Journaler7C_FlushE@Base 0.87
 _ZTVN9Journaler9C_ReProbeE@Base 0.87
 _ZTVNSt6thread11_State_implISt12_Bind_simpleIFSt7_Mem_fnIMN4ceph12timer_detail5timerINS3_11time_detail10mono_clockEEEFvvEEPS8_EEEE@Base 0.87
 _ZTVSt15_Sp_counted_ptrIPN6OSDMap7addrs_sELN9__gnu_cxx12_Lock_policyE2EE@Base 0.87
 _ZTVSt15_Sp_counted_ptrIPSt3mapI4pg_tSt6vectorIiSaIiEESt4lessIS1_ESaISt4pairIKS1_S4_EEELN9__gnu_cxx12_Lock_policyE2EE@Base 0.87
 _ZTVSt15_Sp_counted_ptrIPSt3mapI4pg_tiSt4lessIS1_ESaISt4pairIKS1_iEEELN9__gnu_cxx12_Lock_policyE2EE@Base 0.87
 _ZTVSt15_Sp_counted_ptrIPSt6vectorI6uuid_dSaIS1_EELN9__gnu_cxx12_Lock_policyE2EE@Base 0.87
 _ZTVSt15_Sp_counted_ptrIPSt6vectorIjSaIjEELN9__gnu_cxx12_Lock_policyE2EE@Base 0.87
 _ZTVSt23_Sp_counted_ptr_inplaceI10FilesystemSaIS0_ELN9__gnu_cxx12_Lock_policyE2EE@Base 0.87
 _ZTVSt23_Sp_counted_ptr_inplaceI12CrushWrapperSaIS0_ELN9__gnu_cxx12_Lock_policyE2EE@Base 0.87
 _ZTVSt23_Sp_counted_ptr_inplaceIN6OSDMap7addrs_sESaIS1_ELN9__gnu_cxx12_Lock_policyE2EE@Base 0.87
 _ZTVSt23_Sp_counted_ptr_inplaceISt3mapI4pg_tSt6vectorIiSaIiEESt4lessIS1_ESaISt4pairIKS1_S4_EEESaISB_ELN9__gnu_cxx12_Lock_policyE2EE@Base 0.87
 _ZTVSt23_Sp_counted_ptr_inplaceISt3mapI4pg_tiSt4lessIS1_ESaISt4pairIKS1_iEEESaIS8_ELN9__gnu_cxx12_Lock_policyE2EE@Base 0.87
 _ZTVSt23_Sp_counted_ptr_inplaceISt6vectorI6uuid_dSaIS1_EESaIS3_ELN9__gnu_cxx12_Lock_policyE2EE@Base 0.87
 _ZThn16_N5boost16exception_detail10clone_implINS0_19error_info_injectorINS_17bad_function_callEEEED0Ev@Base 0.87
 _ZThn16_N5boost16exception_detail10clone_implINS0_19error_info_injectorINS_17bad_function_callEEEED1Ev@Base 0.87
 _ZThn16_N5boost16exception_detail19error_info_injectorINS_17bad_function_callEED0Ev@Base 0.87
 _ZThn16_N5boost16exception_detail19error_info_injectorINS_17bad_function_callEED1Ev@Base 0.87
 _ZThn16_N6Client18handle_conf_changeEPK11md_config_tRKSt3setINSt7__cxx1112basic_stringIcSt11char_traitsIcESaIcEEESt4lessIS9_ESaIS9_EE@Base 0.87
 _ZThn16_N6ClientD0Ev@Base 0.87
 _ZThn16_N6ClientD1Ev@Base 0.87
 _ZThn16_NK6Client21get_tracked_conf_keysEv@Base 0.87
 _ZThn24_N5boost16exception_detail10clone_implINS0_19error_info_injectorINS_16bad_lexical_castEEEED0Ev@Base 0.87
 _ZThn24_N5boost16exception_detail10clone_implINS0_19error_info_injectorINS_16bad_lexical_castEEEED1Ev@Base 0.87
 _ZThn24_N5boost16exception_detail19error_info_injectorINS_16bad_lexical_castEED0Ev@Base 0.87
 _ZThn24_N5boost16exception_detail19error_info_injectorINS_16bad_lexical_castEED1Ev@Base 0.87
 _ZThn64_N5boost16exception_detail10clone_implINS0_19error_info_injectorINS_10lock_errorEEEED0Ev@Base 0.87
 _ZThn64_N5boost16exception_detail10clone_implINS0_19error_info_injectorINS_10lock_errorEEEED1Ev@Base 0.87
 _ZThn64_N5boost16exception_detail10clone_implINS0_19error_info_injectorINS_15condition_errorEEEED0Ev@Base 0.87
 _ZThn64_N5boost16exception_detail10clone_implINS0_19error_info_injectorINS_15condition_errorEEEED1Ev@Base 0.87
 _ZThn64_N5boost16exception_detail10clone_implINS0_19error_info_injectorINS_21thread_resource_errorEEEED0Ev@Base 0.87
 _ZThn64_N5boost16exception_detail10clone_implINS0_19error_info_injectorINS_21thread_resource_errorEEEED1Ev@Base 0.87
 _ZThn64_N5boost16exception_detail19error_info_injectorINS_10lock_errorEED0Ev@Base 0.87
 _ZThn64_N5boost16exception_detail19error_info_injectorINS_10lock_errorEED1Ev@Base 0.87
 _ZThn64_N5boost16exception_detail19error_info_injectorINS_15condition_errorEED0Ev@Base 0.87
 _ZThn64_N5boost16exception_detail19error_info_injectorINS_15condition_errorEED1Ev@Base 0.87
 _ZThn64_N5boost16exception_detail19error_info_injectorINS_21thread_resource_errorEED0Ev@Base 0.87
 _ZThn64_N5boost16exception_detail19error_info_injectorINS_21thread_resource_errorEED1Ev@Base 0.87
 _ZThn8_N8Objecter11ms_dispatchEP7Message@Base 0.87
 _ZThn8_N8Objecter15ms_handle_resetEP10Connection@Base 0.87
 _ZThn8_N8Objecter16ms_fast_dispatchEP7Message@Base 0.87
 _ZThn8_N8Objecter17ms_get_authorizerEiPP14AuthAuthorizerb@Base 0.87
 _ZThn8_N8Objecter17ms_handle_connectEP10Connection@Base 0.87
 _ZThn8_N8Objecter22ms_handle_remote_resetEP10Connection@Base 0.87
 _ZThn8_N8ObjecterD0Ev@Base 0.87
 _ZThn8_N8ObjecterD1Ev@Base 0.87
 _ZThn8_NK8Objecter20ms_can_fast_dispatchEP7Message@Base 0.87
 _ZThn8_NK8Objecter24ms_can_fast_dispatch_anyEv@Base 0.87
 _ZTv0_n24_NK5boost16exception_detail10clone_implINS0_19error_info_injectorINS_10lock_errorEEEE5cloneEv@Base 0.87
 _ZTv0_n24_NK5boost16exception_detail10clone_implINS0_19error_info_injectorINS_15condition_errorEEEE5cloneEv@Base 0.87
 _ZTv0_n24_NK5boost16exception_detail10clone_implINS0_19error_info_injectorINS_16bad_lexical_castEEEE5cloneEv@Base 0.87
 _ZTv0_n24_NK5boost16exception_detail10clone_implINS0_19error_info_injectorINS_17bad_function_callEEEE5cloneEv@Base 0.87
 _ZTv0_n24_NK5boost16exception_detail10clone_implINS0_19error_info_injectorINS_21thread_resource_errorEEEE5cloneEv@Base 0.87
 _ZTv0_n32_NK5boost16exception_detail10clone_implINS0_19error_info_injectorINS_10lock_errorEEEE7rethrowEv@Base 0.87
 _ZTv0_n32_NK5boost16exception_detail10clone_implINS0_19error_info_injectorINS_15condition_errorEEEE7rethrowEv@Base 0.87
 _ZTv0_n32_NK5boost16exception_detail10clone_implINS0_19error_info_injectorINS_16bad_lexical_castEEEE7rethrowEv@Base 0.87
 _ZTv0_n32_NK5boost16exception_detail10clone_implINS0_19error_info_injectorINS_17bad_function_callEEEE7rethrowEv@Base 0.87
 _ZTv0_n32_NK5boost16exception_detail10clone_implINS0_19error_info_injectorINS_21thread_resource_errorEEEE7rethrowEv@Base 0.87
 _ZTv0_n40_N5boost16exception_detail10clone_implINS0_19error_info_injectorINS_10lock_errorEEEED0Ev@Base 0.87
 _ZTv0_n40_N5boost16exception_detail10clone_implINS0_19error_info_injectorINS_10lock_errorEEEED1Ev@Base 0.87
 _ZTv0_n40_N5boost16exception_detail10clone_implINS0_19error_info_injectorINS_15condition_errorEEEED0Ev@Base 0.87
 _ZTv0_n40_N5boost16exception_detail10clone_implINS0_19error_info_injectorINS_15condition_errorEEEED1Ev@Base 0.87
 _ZTv0_n40_N5boost16exception_detail10clone_implINS0_19error_info_injectorINS_16bad_lexical_castEEEED0Ev@Base 0.87
 _ZTv0_n40_N5boost16exception_detail10clone_implINS0_19error_info_injectorINS_16bad_lexical_castEEEED1Ev@Base 0.87
 _ZTv0_n40_N5boost16exception_detail10clone_implINS0_19error_info_injectorINS_17bad_function_callEEEED0Ev@Base 0.87
 _ZTv0_n40_N5boost16exception_detail10clone_implINS0_19error_info_injectorINS_17bad_function_callEEEED1Ev@Base 0.87
 _ZTv0_n40_N5boost16exception_detail10clone_implINS0_19error_info_injectorINS_21thread_resource_errorEEEED0Ev@Base 0.87
 _ZTv0_n40_N5boost16exception_detail10clone_implINS0_19error_info_injectorINS_21thread_resource_errorEEEED1Ev@Base 0.87
 _ZZ15finish_contextsI7ContextEvP11CephContextRNSt7__cxx114listIPT_SaIS6_EEEiE15_log_exp_length@Base 0.87
 _ZZ15finish_contextsI7ContextEvP11CephContextRNSt7__cxx114listIPT_SaIS6_EEEiE15_log_exp_length_0@Base 0.87
 _ZZ9stringifyImENSt7__cxx1112basic_stringIcSt11char_traitsIcESaIcEEERKT_E2ssB5cxx11@Base 0.87
 _ZZN10fragtree_t13force_to_leafEP11CephContext6frag_tE15_log_exp_length@Base 0.87
 _ZZN10fragtree_t13force_to_leafEP11CephContext6frag_tE15_log_exp_length_0@Base 0.87
 _ZZN10fragtree_t13force_to_leafEP11CephContext6frag_tE15_log_exp_length_1@Base 0.87
 _ZZN10fragtree_t13force_to_leafEP11CephContext6frag_tE15_log_exp_length_2@Base 0.87
 _ZZN10fragtree_t13force_to_leafEP11CephContext6frag_tE15_log_exp_length_3@Base 0.87
 _ZZN10fragtree_t13force_to_leafEP11CephContext6frag_tE15_log_exp_length_4@Base 0.87
 _ZZN10fragtree_t13force_to_leafEP11CephContext6frag_tE15_log_exp_length_5@Base 0.87
 _ZZN12C_GatherBaseI7ContextS0_E10sub_finishEPS0_iE15_log_exp_length@Base 0.87
 _ZZN12C_GatherBaseI7ContextS0_E7new_subEvE15_log_exp_length@Base 0.87
 _ZZN12C_GatherBaseI7ContextS0_EC4EP11CephContextPS0_E15_log_exp_length@Base 0.87
 _ZZN12C_GatherBaseI7ContextS0_ED4EvE15_log_exp_length@Base 0.87
 _ZZN15ceph_mount_infoD4EvE15_log_exp_length@Base 0.87
 _ZZN16C_Client_Remount6finishEiE15_log_exp_length@Base 0.87
 _ZZN16RefCountedObject3getEvE15_log_exp_length@Base 0.87
 _ZZN16RefCountedObject3putEvE15_log_exp_length@Base 0.87
 _ZZN22C_Client_FlushComplete6finishEiE15_log_exp_length@Base 0.87
 _ZZN5boost9function4IbRN9__gnu_cxx17__normal_iteratorIPcNSt7__cxx1112basic_stringIcSt11char_traitsIcESaIcEEEEERKSA_RNS_6spirit7contextINS_6fusion4consIRS9_NSG_4nil_EEENSG_6vectorIJEEEEERKNSE_11unused_typeEE9assign_toINSE_2qi6detail13parser_binderINSU_4plusINSU_8char_setINSE_13char_encoding8standardELb0ELb0EEEEEN4mpl_5bool_ILb0EEEEEEEvT_E13stored_vtable@Base 0.87
 _ZZN5boost9function4IbRN9__gnu_cxx17__normal_iteratorIPcNSt7__cxx1112basic_stringIcSt11char_traitsIcESaIcEEEEERKSA_RNS_6spirit7contextINS_6fusion4consIRS9_NSG_4nil_EEENSG_6vectorIJEEEEERKNSE_11unused_typeEE9assign_toINSE_2qi6detail13parser_binderINSU_8sequenceINSH_INSU_8char_setINSE_13char_encoding8standardELb0ELb0EEENSH_INSU_6kleeneIS11_EESJ_EEEEEEN4mpl_5bool_ILb0EEEEEEEvT_E13stored_vtable@Base 0.87
 _ZZN5boost9function4IbRN9__gnu_cxx17__normal_iteratorIPcNSt7__cxx1112basic_stringIcSt11char_traitsIcESaIcEEEEERKSA_RNS_6spirit7contextINS_6fusion4consIRSt3mapIS9_S9_St4lessIS9_ESaISt4pairIKS9_S9_EEENSG_4nil_EEENSG_6vectorIJEEEEERKNSE_11unused_typeEE9assign_toINSE_2qi6detail13parser_binderINS12_8sequenceINSH_INS12_9referenceIKNS12_4ruleISA_FSL_IS9_S9_EvESX_SX_SX_EEEENSH_INS12_6kleeneINS15_INSH_INS12_12literal_charINSE_13char_encoding8standardELb1ELb0EEENSH_IS1C_SR_EEEEEEEESR_EEEEEEN4mpl_5bool_ILb0EEEEEEEvT_E13stored_vtable@Base 0.87
 _ZZN5boost9function4IbRN9__gnu_cxx17__normal_iteratorIPcNSt7__cxx1112basic_stringIcSt11char_traitsIcESaIcEEEEERKSA_RNS_6spirit7contextINS_6fusion4consIRSt4pairIS9_S9_ENSG_4nil_EEENSG_6vectorIJEEEEERKNSE_11unused_typeEE9assign_toINSE_2qi6detail13parser_binderINSW_8sequenceINSH_INSW_9referenceIKNSW_4ruleISA_FS9_vESR_SR_SR_EEEENSH_INSW_12literal_charINSE_13char_encoding8standardELb1ELb0EEENSH_IS15_SL_EEEEEEEEN4mpl_5bool_ILb0EEEEEEEvT_E13stored_vtable@Base 0.87
 _ZlsI5OSDOpERSoS1_RKSt6vectorIT_SaIS3_EE@Base 0.87
 _ZlsIiERSoS0_RKSt6vectorIT_SaIS2_EE@Base 0.87
 _ZlsImERSoS0_RK12interval_setIT_E@Base 0.87
 _ZlsRSo6frag_t@Base 0.87
 _ZlsRSo8snapid_t@Base 0.87
 _ZlsRSo9inodeno_t@Base 0.87
 _ZlsRSoRK10vinodeno_t@Base 0.87
 _ZlsRSoRK12ObjectExtent@Base 0.87
 _ZlsRSoRK13entity_addr_t@Base 0.87
 _ZlsRSoRK13entity_inst_t@Base 0.87
 _ZlsRSoRK13entity_name_t@Base 0.87
 _ZlsRSoRK16object_locator_t@Base 0.87
 _ZlsRSoRK5Inode@Base 0.87
 _ZlsRSoRK7Message@Base 0.87
 _ZlsRSoRK8filepath@Base 0.87
 _ZlsRSoRK9SnapRealm@Base 0.87
 _ZlsRSoRK9sobject_t@Base 0.87
 _ZlsRSoRKN12ObjectCacher10BufferHeadE@Base 0.87
 _ZlsRSoRKN12ObjectCacher6ObjectE@Base 0.87
 _ZlsRSoRKN9Journaler6HeaderE@Base 0.87
 ceph_buffer_free@Base 0.93
 ceph_chdir@Base 0.72.2
 ceph_chmod@Base 0.72.2
 ceph_chown@Base 0.72.2
 ceph_close@Base 0.72.2
 ceph_closedir@Base 0.72.2
 ceph_conf_get@Base 0.72.2
 ceph_conf_parse_argv@Base 0.72.2
 ceph_conf_parse_env@Base 0.72.2
 ceph_conf_read_file@Base 0.72.2
 ceph_conf_set@Base 0.72.2
 ceph_create@Base 0.72.2
 ceph_create_from_rados@Base 10.1.0
 ceph_create_with_context@Base 0.72.2
 ceph_debug_get_fd_caps@Base 0.72.2
 ceph_debug_get_file_caps@Base 0.72.2
 ceph_fallocate@Base 0.72.2
 ceph_fchmod@Base 0.72.2
 ceph_fchown@Base 0.72.2
 ceph_fgetxattr@Base 9.2.0
 ceph_flistxattr@Base 9.2.0
 ceph_flock@Base 9.2.0
 ceph_fremovexattr@Base 9.2.0
 ceph_fsetxattr@Base 9.2.0
 ceph_fstat@Base 0.72.2
 ceph_fsync@Base 0.72.2
 ceph_ftruncate@Base 0.72.2
 ceph_get_file_extent_osds@Base 0.72.2
 ceph_get_file_layout@Base 0.72.2
 ceph_get_file_object_size@Base 0.72.2
 ceph_get_file_pool@Base 0.72.2
 ceph_get_file_pool_name@Base 0.72.2
 ceph_get_file_replication@Base 0.72.2
 ceph_get_file_stripe_address@Base 0.72.2
 ceph_get_file_stripe_count@Base 0.72.2
 ceph_get_file_stripe_unit@Base 0.72.2
 ceph_get_local_osd@Base 0.72.2
 ceph_get_mount_context@Base 0.72.2
 ceph_get_osd_addr@Base 0.72.2
 ceph_get_osd_crush_location@Base 0.72.2
 ceph_get_path_layout@Base 0.72.2
 ceph_get_path_object_size@Base 0.72.2
 ceph_get_path_pool@Base 0.72.2
 ceph_get_path_pool_name@Base 0.72.2
 ceph_get_path_replication@Base 0.72.2
 ceph_get_path_stripe_count@Base 0.72.2
 ceph_get_path_stripe_unit@Base 0.72.2
 ceph_get_pool_id@Base 0.72.2
 ceph_get_pool_name@Base 0.72.2
 ceph_get_pool_replication@Base 0.72.2
 ceph_get_stripe_unit_granularity@Base 0.72.2
 ceph_getcwd@Base 0.72.2
 ceph_getdents@Base 0.72.2
 ceph_getdnames@Base 0.72.2
 ceph_getxattr@Base 0.72.2
 ceph_init@Base 0.93
 ceph_is_mounted@Base 0.72.2
 ceph_lchown@Base 0.72.2
 ceph_lgetxattr@Base 0.72.2
 ceph_link@Base 0.72.2
 ceph_listxattr@Base 0.72.2
 ceph_ll_close@Base 0.79
 ceph_ll_commit_blocks@Base 0.79
 ceph_ll_create@Base 0.79
 ceph_ll_file_layout@Base 0.79
 ceph_ll_forget@Base 0.79
 ceph_ll_fsync@Base 0.79
 ceph_ll_get_inode@Base 0.79
 ceph_ll_get_internal_offset@Base 0.79
 ceph_ll_get_stripe_osd@Base 0.79
 ceph_ll_getattr@Base 0.79
 ceph_ll_getxattr@Base 0.79
 ceph_ll_link@Base 0.79
 ceph_ll_listxattr@Base 0.79
 ceph_ll_lookup@Base 0.79
 ceph_ll_lookup_inode@Base 0.79
 ceph_ll_lookup_root@Base 0.79
 ceph_ll_lseek@Base 0.79
 ceph_ll_mkdir@Base 0.79
 ceph_ll_num_osds@Base 0.79
 ceph_ll_open@Base 0.79
 ceph_ll_opendir@Base 0.79
 ceph_ll_osdaddr@Base 0.79
 ceph_ll_put@Base 0.79
 ceph_ll_read@Base 0.79
 ceph_ll_read_block@Base 0.79
 ceph_ll_readlink@Base 0.79
 ceph_ll_readv@Base 0.79
 ceph_ll_releasedir@Base 0.79
 ceph_ll_removexattr@Base 0.79
 ceph_ll_rename@Base 0.79
 ceph_ll_rmdir@Base 0.79
 ceph_ll_setattr@Base 0.79
 ceph_ll_setxattr@Base 0.79
 ceph_ll_snap_seq@Base 0.79
 ceph_ll_statfs@Base 0.79
 ceph_ll_stripe_unit@Base 0.79
 ceph_ll_symlink@Base 0.79
 ceph_ll_truncate@Base 0.79
 ceph_ll_unlink@Base 0.79
 ceph_ll_walk@Base 0.79
 ceph_ll_write@Base 0.79
 ceph_ll_write_block@Base 0.79
 ceph_ll_writev@Base 0.79
 ceph_llistxattr@Base 0.72.2
 ceph_localize_reads@Base 0.72.2
 ceph_lremovexattr@Base 0.72.2
 ceph_lseek@Base 0.72.2
 ceph_lsetxattr@Base 0.72.2
 ceph_lstat@Base 0.72.2
 ceph_mds_command@Base 0.93
 ceph_mkdir@Base 0.72.2
 ceph_mkdirs@Base 0.72.2
 ceph_mknod@Base 0.72.2
 ceph_mount@Base 0.72.2
 ceph_open@Base 0.72.2
 ceph_open_layout@Base 0.72.2
 ceph_opendir@Base 0.72.2
 ceph_preadv@Base 9.2.0
 ceph_pwritev@Base 9.2.0
 ceph_read@Base 0.72.2
 ceph_readdir@Base 0.72.2
 ceph_readdir_r@Base 0.72.2
 ceph_readdirplus_r@Base 0.72.2
 ceph_readlink@Base 0.72.2
 ceph_release@Base 0.72.2
 ceph_removexattr@Base 0.72.2
 ceph_rename@Base 0.72.2
 ceph_rewinddir@Base 0.72.2
 ceph_rmdir@Base 0.72.2
 ceph_seekdir@Base 0.72.2
 ceph_set_default_file_replication@Base 0.72.2
 ceph_set_default_file_stripe_count@Base 0.72.2
 ceph_set_default_file_stripe_unit@Base 0.72.2
 ceph_set_default_object_size@Base 0.72.2
 ceph_set_default_preferred_pg@Base 0.72.2
 ceph_setattr@Base 0.72.2
 ceph_setxattr@Base 0.72.2
 ceph_shutdown@Base 0.72.2
 ceph_stat@Base 0.72.2
 ceph_statfs@Base 0.72.2
 ceph_symlink@Base 0.72.2
 ceph_sync_fs@Base 0.72.2
 ceph_telldir@Base 0.72.2
 ceph_truncate@Base 0.72.2
 ceph_unlink@Base 0.72.2
 ceph_unmount@Base 0.72.2
 ceph_utime@Base 0.72.2
 ceph_version@Base 0.72.2
 ceph_write@Base 0.72.2
